Archive member included to satisfy reference by file (symbol)

/opt/devkitpro/libgba/lib/libmm.a(mm_mas.o)
                              bn_hw_audio.bn_noflto.o (mmStart)
/opt/devkitpro/libgba/lib/libmm.a(mm_main.o)
                              /opt/devkitpro/libgba/lib/libmm.a(mm_mas.o) (mmCallback)
/opt/devkitpro/libgba/lib/libmm.a(mm_effect.o)
                              bn_hw_audio.bn_noflto.o (mmEffect)
/opt/devkitpro/libgba/lib/libmm.a(mm_mas_arm.o)
                              /opt/devkitpro/libgba/lib/libmm.a(mm_mas.o) (mmAllocChannel)
/opt/devkitpro/libgba/lib/libmm.a(mm_mixer_gba.o)
                              bn_hw_audio.bn_noflto.o (mmVBlank)
/opt/devkitpro/libgba/lib/libmm.a(mm_main_gba.o)
                              /opt/devkitpro/libgba/lib/libmm.a(mm_mixer_gba.o) (mm_vblank_function)
/opt/devkitpro/devkitARM/bin/../lib/gcc/arm-none-eabi/12.2.0/thumb/libgcc.a(_call_via_rX.o)
                              /opt/devkitpro/libgba/lib/libmm.a(mm_main_gba.o) (_call_via_r1)
/opt/devkitpro/devkitARM/bin/../lib/gcc/arm-none-eabi/12.2.0/thumb/libgcc.a(_aeabi_ldivmod.o)
                              bn_hw_text.o (__aeabi_ldivmod)
/opt/devkitpro/devkitARM/bin/../lib/gcc/arm-none-eabi/12.2.0/thumb/libgcc.a(_aeabi_uldivmod.o)
                              bn_hw_text.o (__aeabi_uldivmod)
/opt/devkitpro/devkitARM/bin/../lib/gcc/arm-none-eabi/12.2.0/thumb/libgcc.a(_udivmoddi4.o)
                              /opt/devkitpro/devkitARM/bin/../lib/gcc/arm-none-eabi/12.2.0/thumb/libgcc.a(_aeabi_ldivmod.o) (__udivmoddi4)
/opt/devkitpro/devkitARM/bin/../lib/gcc/arm-none-eabi/12.2.0/../../../../arm-none-eabi/lib/thumb/libg.a(lib_a-init.o)
                              /opt/devkitpro/devkitARM/bin/../lib/gcc/arm-none-eabi/12.2.0/../../../../arm-none-eabi/lib/thumb/gba_crt0.o (__libc_init_array)
/opt/devkitpro/devkitARM/bin/../lib/gcc/arm-none-eabi/12.2.0/../../../../arm-none-eabi/lib/thumb/libg.a(lib_a-memcmp.o)
                              player.o (memcmp)
/opt/devkitpro/devkitARM/bin/../lib/gcc/arm-none-eabi/12.2.0/../../../../arm-none-eabi/lib/thumb/libsysbase.a(malloc_vars.o)
                              /opt/devkitpro/devkitARM/bin/../lib/gcc/arm-none-eabi/12.2.0/../../../../arm-none-eabi/lib/thumb/gba_crt0.o (fake_heap_end)

Discarded input sections

 .text          0x0000000000000000        0x0 /opt/devkitpro/devkitARM/bin/../lib/gcc/arm-none-eabi/12.2.0/../../../../arm-none-eabi/lib/thumb/gba_crt0.o
 .data          0x0000000000000000        0x0 /opt/devkitpro/devkitARM/bin/../lib/gcc/arm-none-eabi/12.2.0/../../../../arm-none-eabi/lib/thumb/gba_crt0.o
 .bss           0x0000000000000000        0x0 /opt/devkitpro/devkitARM/bin/../lib/gcc/arm-none-eabi/12.2.0/../../../../arm-none-eabi/lib/thumb/gba_crt0.o
 .text          0x0000000000000000        0x0 /opt/devkitpro/devkitARM/bin/../lib/gcc/arm-none-eabi/12.2.0/thumb/crti.o
 .data          0x0000000000000000        0x0 /opt/devkitpro/devkitARM/bin/../lib/gcc/arm-none-eabi/12.2.0/thumb/crti.o
 .bss           0x0000000000000000        0x0 /opt/devkitpro/devkitARM/bin/../lib/gcc/arm-none-eabi/12.2.0/thumb/crti.o
 .text          0x0000000000000000        0x0 /opt/devkitpro/devkitARM/bin/../lib/gcc/arm-none-eabi/12.2.0/thumb/crtbegin.o
 .data          0x0000000000000000        0x0 /opt/devkitpro/devkitARM/bin/../lib/gcc/arm-none-eabi/12.2.0/thumb/crtbegin.o
 .bss           0x0000000000000000        0x0 /opt/devkitpro/devkitARM/bin/../lib/gcc/arm-none-eabi/12.2.0/thumb/crtbegin.o
 .rodata.all_implied_fbits
                0x0000000000000000       0x24 /opt/devkitpro/devkitARM/bin/../lib/gcc/arm-none-eabi/12.2.0/thumb/crtbegin.o
 .data.__dso_handle
                0x0000000000000000        0x4 /opt/devkitpro/devkitARM/bin/../lib/gcc/arm-none-eabi/12.2.0/thumb/crtbegin.o
 .text          0x0000000000000000        0x0 _bn_audio_soundbank.bin.o
 .data          0x0000000000000000        0x0 _bn_audio_soundbank.bin.o
 .bss           0x0000000000000000        0x0 _bn_audio_soundbank.bin.o
 .text          0x0000000000000000        0x0 gooch_bn_gfx.o
 .data          0x0000000000000000        0x0 gooch_bn_gfx.o
 .bss           0x0000000000000000        0x0 gooch_bn_gfx.o
 .text          0x0000000000000000        0x0 test_npc2_bn_gfx.o
 .data          0x0000000000000000        0x0 test_npc2_bn_gfx.o
 .bss           0x0000000000000000        0x0 test_npc2_bn_gfx.o
 .rodata        0x0000000000000000      0x180 test_npc2_bn_gfx.o
 .text          0x0000000000000000        0x0 test_npc_bn_gfx.o
 .data          0x0000000000000000        0x0 test_npc_bn_gfx.o
 .bss           0x0000000000000000        0x0 test_npc_bn_gfx.o
 .rodata        0x0000000000000000      0x280 test_npc_bn_gfx.o
 .text          0x0000000000000000        0x0 common_fixed_8x16_font_bn_gfx.o
 .data          0x0000000000000000        0x0 common_fixed_8x16_font_bn_gfx.o
 .bss           0x0000000000000000        0x0 common_fixed_8x16_font_bn_gfx.o
 .rodata        0x0000000000000000     0x1ba0 common_fixed_8x16_font_bn_gfx.o
 .text          0x0000000000000000        0x0 common_fixed_8x8_font_bn_gfx.o
 .data          0x0000000000000000        0x0 common_fixed_8x8_font_bn_gfx.o
 .bss           0x0000000000000000        0x0 common_fixed_8x8_font_bn_gfx.o
 .rodata        0x0000000000000000      0xde0 common_fixed_8x8_font_bn_gfx.o
 .text          0x0000000000000000        0x0 common_variable_16x16_font_bn_gfx.o
 .data          0x0000000000000000        0x0 common_variable_16x16_font_bn_gfx.o
 .bss           0x0000000000000000        0x0 common_variable_16x16_font_bn_gfx.o
 .rodata        0x0000000000000000     0x3720 common_variable_16x16_font_bn_gfx.o
 .text          0x0000000000000000        0x0 common_variable_8x16_font_bn_gfx.o
 .data          0x0000000000000000        0x0 common_variable_8x16_font_bn_gfx.o
 .bss           0x0000000000000000        0x0 common_variable_8x16_font_bn_gfx.o
 .rodata        0x0000000000000000     0x1ba0 common_variable_8x16_font_bn_gfx.o
 .text          0x0000000000000000        0x0 common_variable_8x8_font_bn_gfx.o
 .data          0x0000000000000000        0x0 common_variable_8x8_font_bn_gfx.o
 .bss           0x0000000000000000        0x0 common_variable_8x8_font_bn_gfx.o
 .rodata        0x0000000000000000      0xde0 common_variable_8x8_font_bn_gfx.o
 .group         0x0000000000000000        0xc main.o
 .text          0x0000000000000000        0x0 main.o
 .data          0x0000000000000000        0x0 main.o
 .bss           0x0000000000000000        0x0 main.o
 .group         0x0000000000000000        0xc npc.o
 .group         0x0000000000000000        0xc npc.o
 .group         0x0000000000000000        0xc npc.o
 .text          0x0000000000000000        0x0 npc.o
 .data          0x0000000000000000        0x0 npc.o
 .bss           0x0000000000000000        0x0 npc.o
 .text._ZN2gm3NPCC2EN2bn10sprite_ptrENS1_21sprite_animate_actionILi4EEENS1_10camera_ptrE
                0x0000000000000000       0xa4 npc.o
 .text._ZN2gm3NPCC2EN2bn10sprite_ptrENS1_5arrayINS1_11string_viewELi2EEES5_NS1_10camera_ptrE
                0x0000000000000000       0x84 npc.o
 .text._ZN2gm3NPCC2EN2bn10sprite_ptrENS1_5arrayINS1_11string_viewELi2EEENS1_10camera_ptrE
                0x0000000000000000       0xcc npc.o
 .rodata._ZN2gm3NPC7animateEv.str1.4
                0x0000000000000000       0x88 npc.o
 .text._ZN2gm3NPC7animateEv
                0x0000000000000000       0xf4 npc.o
 .group         0x0000000000000000        0xc player.o
 .group         0x0000000000000000        0xc player.o
 .group         0x0000000000000000        0xc player.o
 .text          0x0000000000000000        0x0 player.o
 .data          0x0000000000000000        0x0 player.o
 .bss           0x0000000000000000        0x0 player.o
 .rodata._ZN2bnlsERNS_13ostringstreamEN2gm9SceneTypeE.str1.4
                0x0000000000000000        0xd player.o
 .text._ZN2bnlsERNS_13ostringstreamEN2gm9SceneTypeE
                0x0000000000000000       0x2c player.o
 .rodata._ZN2bnlsERNS_13ostringstreamEN2gm11PlayerStateE.str1.4
                0x0000000000000000       0x2f player.o
 .text._ZN2bnlsERNS_13ostringstreamEN2gm11PlayerStateE
                0x0000000000000000       0x58 player.o
 .rodata._ZN2bnlsERNS_13ostringstreamEN2gm11PlayerStateE
                0x0000000000000000       0x14 player.o
 .rodata._ZN2bnlsERNS_13ostringstreamEN2gm15PlayerDirectionE.str1.4
                0x0000000000000000       0x1a player.o
 .text._ZN2bnlsERNS_13ostringstreamEN2gm15PlayerDirectionE
                0x0000000000000000       0x4c player.o
 .text._ZN2gm6Player3RunENS_15PlayerDirectionEN2bn11fixed_pointE
                0x0000000000000000       0x28 player.o
 .text._ZN2gm6Player4WalkENS_15PlayerDirectionEN2bn11fixed_pointE
                0x0000000000000000       0x28 player.o
 .text._ZN2gm6Player4TurnENS_15PlayerDirectionE
                0x0000000000000000       0x20 player.o
 .text._ZN2gm6Player11ResetSpriteENS_15PlayerDirectionE
                0x0000000000000000        0xc player.o
 .text._ZN3_bn6assert9show_argsIA15_cEEvPKcS4_S4_iRKT_
                0x0000000000000000       0x50 player.o
 .text._ZN3_bn6assert9show_argsIJA16_ciA4_ciEEEvPKcS5_S5_iDpRKT_
                0x0000000000000000       0x6c player.o
 .text          0x0000000000000000        0x0 state.o
 .data          0x0000000000000000        0x0 state.o
 .bss           0x0000000000000000        0x0 state.o
 .text._ZNK2gm5State8GetSceneEv
                0x0000000000000000        0x4 state.o
 .text._ZN2gm5State8SetSceneENS_9SceneTypeE
                0x0000000000000000        0x4 state.o
 .group         0x0000000000000000        0xc common_info.o
 .text          0x0000000000000000        0x0 common_info.o
 .data          0x0000000000000000        0x0 common_info.o
 .bss           0x0000000000000000        0x0 common_info.o
 .text._ZN6common4info15_update_spritesEv
                0x0000000000000000       0x98 common_info.o
 .text._ZN6common4info15set_show_alwaysEb
                0x0000000000000000       0x28 common_info.o
 .text._ZN6common4info6updateEv
                0x0000000000000000       0x30 common_info.o
 .rodata._ZN6common4infoC2ERKN2bn11string_viewERKNS1_4spanIS3_EERNS1_21sprite_text_generatorE.str1.4
                0x0000000000000000       0x26 common_info.o
 .text._ZN6common4infoC2ERKN2bn11string_viewERKNS1_4spanIS3_EERNS1_21sprite_text_generatorE
                0x0000000000000000      0x150 common_info.o
 .rodata._ZN6common4infoC2ERKN2bn4spanIKNS1_11string_viewEEERNS1_21sprite_text_generatorE.str1.4
                0x0000000000000000        0x1 common_info.o
 .text._ZN6common4infoC2ERKN2bn4spanIKNS1_11string_viewEEERNS1_21sprite_text_generatorE
                0x0000000000000000       0x24 common_info.o
 .group         0x0000000000000000        0xc common_stats.o
 .group         0x0000000000000000        0xc common_stats.o
 .text          0x0000000000000000        0x0 common_stats.o
 .data          0x0000000000000000        0x0 common_stats.o
 .bss           0x0000000000000000        0x0 common_stats.o
 .rodata._ZN6common5stats8set_modeENS0_9mode_typeE.str1.4
                0x0000000000000000       0x8f common_stats.o
 .text._ZN6common5stats8set_modeENS0_9mode_typeE
                0x0000000000000000      0x2d4 common_stats.o
 .text._ZN6common5statsC2ERN2bn21sprite_text_generatorE
                0x0000000000000000       0x3c common_stats.o
 .text._ZN2bn13ostringstream6appendILi12EEEvNS_7fixed_tIXT_EEE
                0x0000000000000000       0xa0 common_stats.o
 .rodata._ZN6common5stats6updateEv.str1.4
                0x0000000000000000        0xa common_stats.o
 .text._ZN6common5stats6updateEv
                0x0000000000000000      0x190 common_stats.o
 .group         0x0000000000000000        0xc bn_audio_manager.o
 .group         0x0000000000000000        0xc bn_audio_manager.o
 .group         0x0000000000000000        0xc bn_audio_manager.o
 .group         0x0000000000000000        0xc bn_audio_manager.o
 .group         0x0000000000000000        0xc bn_audio_manager.o
 .group         0x0000000000000000        0xc bn_audio_manager.o
 .group         0x0000000000000000        0xc bn_audio_manager.o
 .group         0x0000000000000000        0xc bn_audio_manager.o
 .group         0x0000000000000000        0xc bn_audio_manager.o
 .group         0x0000000000000000        0xc bn_audio_manager.o
 .group         0x0000000000000000        0xc bn_audio_manager.o
 .group         0x0000000000000000        0xc bn_audio_manager.o
 .group         0x0000000000000000        0xc bn_audio_manager.o
 .group         0x0000000000000000        0xc bn_audio_manager.o
 .group         0x0000000000000000        0xc bn_audio_manager.o
 .group         0x0000000000000000        0xc bn_audio_manager.o
 .text          0x0000000000000000        0x0 bn_audio_manager.o
 .data          0x0000000000000000        0x0 bn_audio_manager.o
 .bss           0x0000000000000000        0x0 bn_audio_manager.o
 .text._ZN2bn5audio16update_on_vblankEv
                0x0000000000000000        0xc bn_audio_manager.o
 .text._ZN2bn5audio20set_update_on_vblankEb
                0x0000000000000000        0xc bn_audio_manager.o
 .text._ZN2bn5audio16dmg_sync_enabledEv
                0x0000000000000000        0xc bn_audio_manager.o
 .text._ZN2bn5audio20set_dmg_sync_enabledEb
                0x0000000000000000        0xc bn_audio_manager.o
 .text._ZN2bn5music7playingEv
                0x0000000000000000        0xc bn_audio_manager.o
 .text._ZN2bn5music12playing_itemEv
                0x0000000000000000       0x2c bn_audio_manager.o
 .text._ZN2bn5music6pausedEv
                0x0000000000000000        0xc bn_audio_manager.o
 .text._ZN2bn9dmg_music7playingEv
                0x0000000000000000       0x10 bn_audio_manager.o
 .text._ZN2bn9dmg_music12playing_itemEv
                0x0000000000000000       0x28 bn_audio_manager.o
 .text._ZN2bn9dmg_music6pausedEv
                0x0000000000000000        0xc bn_audio_manager.o
 .text._ZN2bn13audio_manager6enableEv
                0x0000000000000000        0xc bn_audio_manager.o
 .text._ZN2bn13audio_manager13music_playingEv
                0x0000000000000000        0xc bn_audio_manager.o
 .text._ZN2bn13audio_manager18playing_music_itemEv
                0x0000000000000000       0x2c bn_audio_manager.o
 .text._ZN2bn13audio_manager12music_pausedEv
                0x0000000000000000        0xc bn_audio_manager.o
 .text._ZN2bn13audio_manager17dmg_music_playingEv
                0x0000000000000000       0x10 bn_audio_manager.o
 .text._ZN2bn13audio_manager22playing_dmg_music_itemEv
                0x0000000000000000       0x28 bn_audio_manager.o
 .text._ZN2bn13audio_manager16dmg_music_pausedEv
                0x0000000000000000        0xc bn_audio_manager.o
 .text._ZN2bn13audio_manager16dmg_sync_enabledEv
                0x0000000000000000        0xc bn_audio_manager.o
 .text._ZN2bn13audio_manager20set_dmg_sync_enabledEb
                0x0000000000000000        0xc bn_audio_manager.o
 .text._ZN2bn13audio_manager16update_on_vblankEv
                0x0000000000000000        0xc bn_audio_manager.o
 .text._ZN2bn13audio_manager20set_update_on_vblankEb
                0x0000000000000000        0xc bn_audio_manager.o
 .text._ZN3_bn6assert9show_argsIA19_ciEEvPKcS4_S4_iRKT_RKT0_
                0x0000000000000000       0x58 bn_audio_manager.o
 .text._ZN3_bn6assert9show_argsIA36_ciEEvPKcS4_S4_iRKT_RKT0_
                0x0000000000000000       0x58 bn_audio_manager.o
 .text._ZN2bn13audio_manager10play_musicENS_10music_itemENS_7fixed_tILi12EEEb
                0x0000000000000000       0x84 bn_audio_manager.o
 .rodata._ZN2bn13audio_manager14play_dmg_musicENS_14dmg_music_itemEib.str1.4
                0x0000000000000000        0xf bn_audio_manager.o
 .text._ZN2bn13audio_manager14play_dmg_musicENS_14dmg_music_itemEib
                0x0000000000000000       0x68 bn_audio_manager.o
 .rodata._ZN2bn13audio_manager10play_soundEiNS_10sound_itemE.str1.4
                0x0000000000000000        0xb bn_audio_manager.o
 .text._ZN2bn13audio_manager10play_soundEiNS_10sound_itemE
                0x0000000000000000       0x54 bn_audio_manager.o
 .text._ZN2bn13audio_manager10play_soundEiNS_10sound_itemENS_7fixed_tILi12EEES3_S3_
                0x0000000000000000       0xd0 bn_audio_manager.o
 .text._ZN2bn13audio_manager15stop_all_soundsEv
                0x0000000000000000       0x48 bn_audio_manager.o
 .text._ZN2bn5sound8stop_allEv
                0x0000000000000000       0x48 bn_audio_manager.o
 .text._ZN2bn5sound4playENS_10sound_itemE
                0x0000000000000000       0x58 bn_audio_manager.o
 .text._ZNK2bn10sound_item4playEv
                0x0000000000000000       0x58 bn_audio_manager.o
 .rodata._ZNK2bn10sound_item18play_with_priorityEi.str1.4
                0x0000000000000000       0x70 bn_audio_manager.o
 .text._ZNK2bn10sound_item18play_with_priorityEi
                0x0000000000000000       0x90 bn_audio_manager.o
 .text._ZN2bn5sound18play_with_priorityEiNS_10sound_itemE
                0x0000000000000000       0x90 bn_audio_manager.o
 .text._ZN2bn5music4playENS_10music_itemE
                0x0000000000000000       0x70 bn_audio_manager.o
 .text._ZN2bn9dmg_music4playENS_14dmg_music_itemE
                0x0000000000000000       0x6c bn_audio_manager.o
 .text._ZNK2bn10music_item4playEv
                0x0000000000000000       0x74 bn_audio_manager.o
 .text._ZNK2bn14dmg_music_item4playEv
                0x0000000000000000       0x6c bn_audio_manager.o
 .rodata._ZNK2bn14dmg_music_item4playEib.str1.4
                0x0000000000000000       0x52 bn_audio_manager.o
 .text._ZNK2bn14dmg_music_item4playEib
                0x0000000000000000       0x98 bn_audio_manager.o
 .text._ZNK2bn14dmg_music_item4playEi
                0x0000000000000000       0x98 bn_audio_manager.o
 .text._ZN2bn9dmg_music4playENS_14dmg_music_itemEib
                0x0000000000000000       0x98 bn_audio_manager.o
 .text._ZN2bn9dmg_music4playENS_14dmg_music_itemEi
                0x0000000000000000       0x98 bn_audio_manager.o
 .rodata._ZN2bn5music8positionEv.str1.4
                0x0000000000000000        0xf bn_audio_manager.o
 .text._ZN2bn5music8positionEv
                0x0000000000000000       0x40 bn_audio_manager.o
 .rodata._ZN2bn13audio_manager18set_music_positionEi.str1.4
                0x0000000000000000       0x13 bn_audio_manager.o
 .text._ZN2bn13audio_manager18set_music_positionEi
                0x0000000000000000       0x74 bn_audio_manager.o
 .rodata._ZN2bn13audio_manager12music_volumeEv.str1.4
                0x0000000000000000        0xd bn_audio_manager.o
 .text._ZN2bn13audio_manager12music_volumeEv
                0x0000000000000000       0x3c bn_audio_manager.o
 .rodata._ZN2bn13audio_manager16set_music_volumeENS_7fixed_tILi12EEE.str1.4
                0x0000000000000000       0x11 bn_audio_manager.o
 .text._ZN2bn13audio_manager16set_music_volumeENS_7fixed_tILi12EEE
                0x0000000000000000       0x84 bn_audio_manager.o
 .text._ZN2bn5music6volumeEv
                0x0000000000000000       0x3c bn_audio_manager.o
 .text._ZN2bn13audio_manager14music_positionEv
                0x0000000000000000       0x40 bn_audio_manager.o
 .rodata._ZN2bn5music12set_positionEi.str1.4
                0x0000000000000000       0x43 bn_audio_manager.o
 .text._ZN2bn5music12set_positionEi
                0x0000000000000000       0xa0 bn_audio_manager.o
 .text._ZN2bn5music4stopEv
                0x0000000000000000       0x70 bn_audio_manager.o
 .rodata._ZN2bn13audio_manager11pause_musicEv.str1.4
                0x0000000000000000       0x38 bn_audio_manager.o
 .text._ZN2bn13audio_manager11pause_musicEv
                0x0000000000000000       0x90 bn_audio_manager.o
 .text._ZN2bn5music5pauseEv
                0x0000000000000000        0xc bn_audio_manager.o
 .rodata._ZN2bn13audio_manager16resume_dmg_musicEv.str1.4
                0x0000000000000000       0x44 bn_audio_manager.o
 .text._ZN2bn13audio_manager16resume_dmg_musicEv
                0x0000000000000000       0x6c bn_audio_manager.o
 .text._ZN2bn9dmg_music6resumeEv
                0x0000000000000000       0x6c bn_audio_manager.o
 .text._ZN3_bn6assert9show_argsIA20_cEEvPKcS4_S4_iRKT_
                0x0000000000000000       0x50 bn_audio_manager.o
 .rodata._ZN2bn13audio_manager12resume_musicEv.str1.4
                0x0000000000000000       0x38 bn_audio_manager.o
 .text._ZN2bn13audio_manager12resume_musicEv
                0x0000000000000000       0x6c bn_audio_manager.o
 .text._ZN2bn5music6resumeEv
                0x0000000000000000       0x6c bn_audio_manager.o
 .text._ZN3_bn6assert9show_argsIA29_cEEvPKcS4_S4_iRKT_
                0x0000000000000000       0x50 bn_audio_manager.o
 .rodata._ZN2bn13audio_manager14stop_dmg_musicEv.str1.4
                0x0000000000000000       0x41 bn_audio_manager.o
 .text._ZN2bn13audio_manager14stop_dmg_musicEv
                0x0000000000000000       0x70 bn_audio_manager.o
 .text._ZN2bn13audio_manager18dmg_music_positionEv
                0x0000000000000000       0x3c bn_audio_manager.o
 .rodata._ZN2bn13audio_manager22set_dmg_music_positionERKNS_18dmg_music_positionE.str1.4
                0x0000000000000000       0x17 bn_audio_manager.o
 .text._ZN2bn13audio_manager22set_dmg_music_positionERKNS_18dmg_music_positionE
                0x0000000000000000       0x84 bn_audio_manager.o
 .text._ZN2bn9dmg_music12set_positionEii
                0x0000000000000000       0x6c bn_audio_manager.o
 .rodata._ZN2bn13audio_manager21dmg_music_left_volumeEv.str1.4
                0x0000000000000000       0x16 bn_audio_manager.o
 .text._ZN2bn13audio_manager21dmg_music_left_volumeEv
                0x0000000000000000       0x3c bn_audio_manager.o
 .rodata._ZN2bn13audio_manager22dmg_music_right_volumeEv.str1.4
                0x0000000000000000       0x17 bn_audio_manager.o
 .text._ZN2bn13audio_manager22dmg_music_right_volumeEv
                0x0000000000000000       0x40 bn_audio_manager.o
 .rodata._ZN2bn13audio_manager20set_dmg_music_volumeENS_7fixed_tILi12EEES2_.str1.4
                0x0000000000000000       0x15 bn_audio_manager.o
 .text._ZN2bn13audio_manager20set_dmg_music_volumeENS_7fixed_tILi12EEES2_
                0x0000000000000000       0x9c bn_audio_manager.o
 .text._ZN2bn13audio_manager25set_dmg_music_left_volumeENS_7fixed_tILi12EEE
                0x0000000000000000       0x14 bn_audio_manager.o
 .text._ZN2bn13audio_manager26set_dmg_music_right_volumeENS_7fixed_tILi12EEE
                0x0000000000000000       0x18 bn_audio_manager.o
 .text._ZN2bn9dmg_music11left_volumeEv
                0x0000000000000000       0x3c bn_audio_manager.o
 .text._ZN2bn9dmg_music12right_volumeEv
                0x0000000000000000       0x40 bn_audio_manager.o
 .text._ZN2bn9dmg_music8positionEv
                0x0000000000000000       0x3c bn_audio_manager.o
 .text._ZN2bn9dmg_music4stopEv
                0x0000000000000000       0x70 bn_audio_manager.o
 .text._ZN2bn9dmg_music12set_positionERKNS_18dmg_music_positionE
                0x0000000000000000       0x84 bn_audio_manager.o
 .text._ZN3_bn6assert9show_argsIA28_cEEvPKcS4_S4_iRKT_
                0x0000000000000000       0x50 bn_audio_manager.o
 .rodata._ZN2bn13audio_manager15pause_dmg_musicEv.str1.4
                0x0000000000000000       0x44 bn_audio_manager.o
 .text._ZN2bn13audio_manager15pause_dmg_musicEv
                0x0000000000000000       0x90 bn_audio_manager.o
 .text._ZN2bn9dmg_music5pauseEv
                0x0000000000000000        0xc bn_audio_manager.o
 .text._ZN2bn13ostringstream6appendILi12EEEvNS_7fixed_tIXT_EEE
                0x0000000000000000       0xa0 bn_audio_manager.o
 .text._ZN3_bn6assert9show_argsIA25_cN2bn7fixed_tILi12EEEEEvPKcS7_S7_iRKT_RKT0_
                0x0000000000000000       0x58 bn_audio_manager.o
 .rodata._ZN2bn5music4playENS_10music_itemENS_7fixed_tILi12EEE.str1.4
                0x0000000000000000       0x35 bn_audio_manager.o
 .text._ZN2bn5music4playENS_10music_itemENS_7fixed_tILi12EEE
                0x0000000000000000       0x9c bn_audio_manager.o
 .text._ZN2bn5music4playENS_10music_itemENS_7fixed_tILi12EEEb
                0x0000000000000000       0x9c bn_audio_manager.o
 .rodata._ZN2bn5music10set_volumeENS_7fixed_tILi12EEE.str1.4
                0x0000000000000000        0xb bn_audio_manager.o
 .text._ZN2bn5music10set_volumeENS_7fixed_tILi12EEE
                0x0000000000000000       0xac bn_audio_manager.o
 .text._ZN2bn5sound4playENS_10sound_itemENS_7fixed_tILi12EEE
                0x0000000000000000       0x9c bn_audio_manager.o
 .text._ZN2bn5sound18play_with_priorityEiNS_10sound_itemENS_7fixed_tILi12EEE
                0x0000000000000000       0xcc bn_audio_manager.o
 .text._ZN2bn9dmg_music10set_volumeENS_7fixed_tILi12EEE
                0x0000000000000000       0x40 bn_audio_manager.o
 .text._ZNK2bn10music_item4playENS_7fixed_tILi12EEEb
                0x0000000000000000       0x9c bn_audio_manager.o
 .text._ZNK2bn10music_item4playENS_7fixed_tILi12EEE
                0x0000000000000000       0x9c bn_audio_manager.o
 .text._ZNK2bn10sound_item4playENS_7fixed_tILi12EEE
                0x0000000000000000       0x9c bn_audio_manager.o
 .text._ZNK2bn10sound_item18play_with_priorityEiNS_7fixed_tILi12EEE
                0x0000000000000000       0xcc bn_audio_manager.o
 .text._ZN3_bn6assert9show_argsIA27_cN2bn7fixed_tILi12EEEEEvPKcS7_S7_iRKT_RKT0_
                0x0000000000000000       0x58 bn_audio_manager.o
 .rodata._ZN2bn5sound4playENS_10sound_itemENS_7fixed_tILi12EEES3_S3_.str1.4
                0x0000000000000000       0x73 bn_audio_manager.o
 .text._ZN2bn5sound4playENS_10sound_itemENS_7fixed_tILi12EEES3_S3_
                0x0000000000000000       0xa0 bn_audio_manager.o
 .text._ZNK2bn10sound_item4playENS_7fixed_tILi12EEES2_S2_
                0x0000000000000000       0x10 bn_audio_manager.o
 .text._ZN2bn5sound18play_with_priorityEiNS_10sound_itemENS_7fixed_tILi12EEES3_S3_
                0x0000000000000000       0xcc bn_audio_manager.o
 .text._ZNK2bn10sound_item18play_with_priorityEiNS_7fixed_tILi12EEES2_S2_
                0x0000000000000000       0x1c bn_audio_manager.o
 .text._ZN3_bn6assert9show_argsIA30_cN2bn7fixed_tILi12EEEEEvPKcS7_S7_iRKT_RKT0_
                0x0000000000000000       0x58 bn_audio_manager.o
 .rodata._ZN2bn9dmg_music15set_left_volumeENS_7fixed_tILi12EEE.str1.4
                0x0000000000000000       0x56 bn_audio_manager.o
 .text._ZN2bn9dmg_music15set_left_volumeENS_7fixed_tILi12EEE
                0x0000000000000000       0x44 bn_audio_manager.o
 .text._ZN3_bn6assert9show_argsIA31_cN2bn7fixed_tILi12EEEEEvPKcS7_S7_iRKT_RKT0_
                0x0000000000000000       0x58 bn_audio_manager.o
 .rodata._ZN2bn9dmg_music16set_right_volumeENS_7fixed_tILi12EEE.str1.4
                0x0000000000000000       0x5b bn_audio_manager.o
 .text._ZN2bn9dmg_music16set_right_volumeENS_7fixed_tILi12EEE
                0x0000000000000000       0x48 bn_audio_manager.o
 .text._ZN2bn9dmg_music10set_volumeENS_7fixed_tILi12EEES2_
                0x0000000000000000       0x60 bn_audio_manager.o
 .group         0x0000000000000000        0xc bn_best_fit_allocator.o
 .group         0x0000000000000000        0xc bn_best_fit_allocator.o
 .group         0x0000000000000000        0xc bn_best_fit_allocator.o
 .group         0x0000000000000000        0xc bn_best_fit_allocator.o
 .group         0x0000000000000000        0xc bn_best_fit_allocator.o
 .group         0x0000000000000000        0xc bn_best_fit_allocator.o
 .group         0x0000000000000000        0xc bn_best_fit_allocator.o
 .text          0x0000000000000000        0x0 bn_best_fit_allocator.o
 .data          0x0000000000000000        0x0 bn_best_fit_allocator.o
 .bss           0x0000000000000000        0x0 bn_best_fit_allocator.o
 .text._ZN2bn18best_fit_allocator4freeEPv
                0x0000000000000000       0x7c bn_best_fit_allocator.o
 .rodata._ZNK2bn18best_fit_allocator10log_statusEv.str1.4
                0x0000000000000000       0x54 bn_best_fit_allocator.o
 .text._ZNK2bn18best_fit_allocator10log_statusEv
                0x0000000000000000      0x16c bn_best_fit_allocator.o
 .text._ZN2bn18best_fit_allocator15_best_free_itemEi
                0x0000000000000000       0x54 bn_best_fit_allocator.o
 .text._ZN3_bn6assert9show_argsIA16_ciEEvPKcS4_S4_iRKT_RKT0_
                0x0000000000000000       0x58 bn_best_fit_allocator.o
 .text._ZN3_bn6assert9show_argsIA14_ciEEvPKcS4_S4_iRKT_RKT0_
                0x0000000000000000       0x58 bn_best_fit_allocator.o
 .rodata._ZN2bn18best_fit_allocator6callocEii.str1.4
                0x0000000000000000       0x22 bn_best_fit_allocator.o
 .text._ZN2bn18best_fit_allocator6callocEii
                0x0000000000000000       0x80 bn_best_fit_allocator.o
 .text._ZN3_bn6assert9show_argsIA20_ciEEvPKcS4_S4_iRKT_RKT0_
                0x0000000000000000       0x58 bn_best_fit_allocator.o
 .text._ZN3_bn6assert9show_argsIA19_ciEEvPKcS4_S4_iRKT_RKT0_
                0x0000000000000000       0x58 bn_best_fit_allocator.o
 .rodata._ZN2bn18best_fit_allocator7reallocEPvi.str1.4
                0x0000000000000000       0x63 bn_best_fit_allocator.o
 .text._ZN2bn18best_fit_allocator7reallocEPvi
                0x0000000000000000       0xac bn_best_fit_allocator.o
 .group         0x0000000000000000        0xc bn_bg_blocks_manager.o
 .group         0x0000000000000000        0xc bn_bg_blocks_manager.o
 .group         0x0000000000000000        0xc bn_bg_blocks_manager.o
 .group         0x0000000000000000        0xc bn_bg_blocks_manager.o
 .group         0x0000000000000000        0xc bn_bg_blocks_manager.o
 .group         0x0000000000000000        0xc bn_bg_blocks_manager.o
 .group         0x0000000000000000        0xc bn_bg_blocks_manager.o
 .group         0x0000000000000000        0xc bn_bg_blocks_manager.o
 .group         0x0000000000000000        0xc bn_bg_blocks_manager.o
 .group         0x0000000000000000        0xc bn_bg_blocks_manager.o
 .group         0x0000000000000000        0xc bn_bg_blocks_manager.o
 .group         0x0000000000000000        0xc bn_bg_blocks_manager.o
 .group         0x0000000000000000        0xc bn_bg_blocks_manager.o
 .group         0x0000000000000000        0xc bn_bg_blocks_manager.o
 .group         0x0000000000000000        0xc bn_bg_blocks_manager.o
 .group         0x0000000000000000        0xc bn_bg_blocks_manager.o
 .group         0x0000000000000000        0xc bn_bg_blocks_manager.o
 .group         0x0000000000000000        0xc bn_bg_blocks_manager.o
 .group         0x0000000000000000        0xc bn_bg_blocks_manager.o
 .group         0x0000000000000000        0xc bn_bg_blocks_manager.o
 .group         0x0000000000000000        0xc bn_bg_blocks_manager.o
 .group         0x0000000000000000        0xc bn_bg_blocks_manager.o
 .group         0x0000000000000000        0xc bn_bg_blocks_manager.o
 .group         0x0000000000000000        0xc bn_bg_blocks_manager.o
 .group         0x0000000000000000        0xc bn_bg_blocks_manager.o
 .group         0x0000000000000000        0xc bn_bg_blocks_manager.o
 .group         0x0000000000000000        0xc bn_bg_blocks_manager.o
 .group         0x0000000000000000        0xc bn_bg_blocks_manager.o
 .group         0x0000000000000000        0xc bn_bg_blocks_manager.o
 .group         0x0000000000000000        0xc bn_bg_blocks_manager.o
 .group         0x0000000000000000        0xc bn_bg_blocks_manager.o
 .group         0x0000000000000000        0xc bn_bg_blocks_manager.o
 .group         0x0000000000000000        0xc bn_bg_blocks_manager.o
 .group         0x0000000000000000        0xc bn_bg_blocks_manager.o
 .group         0x0000000000000000        0xc bn_bg_blocks_manager.o
 .group         0x0000000000000000        0xc bn_bg_blocks_manager.o
 .group         0x0000000000000000        0xc bn_bg_blocks_manager.o
 .group         0x0000000000000000        0xc bn_bg_blocks_manager.o
 .group         0x0000000000000000        0xc bn_bg_blocks_manager.o
 .group         0x0000000000000000        0xc bn_bg_blocks_manager.o
 .group         0x0000000000000000        0xc bn_bg_blocks_manager.o
 .group         0x0000000000000000        0xc bn_bg_blocks_manager.o
 .group         0x0000000000000000        0xc bn_bg_blocks_manager.o
 .group         0x0000000000000000        0xc bn_bg_blocks_manager.o
 .group         0x0000000000000000        0xc bn_bg_blocks_manager.o
 .group         0x0000000000000000        0xc bn_bg_blocks_manager.o
 .text          0x0000000000000000        0x0 bn_bg_blocks_manager.o
 .data          0x0000000000000000        0x0 bn_bg_blocks_manager.o
 .bss           0x0000000000000000        0x0 bn_bg_blocks_manager.o
 .text._ZN2bn17bg_blocks_manager12_GLOBAL__N_125_regular_map_blocks_countEii
                0x0000000000000000       0x38 bn_bg_blocks_manager.o
 .text._ZN2bn13ostringstream11append_argsIiJA4_ctEEEvRKT_DpRKT0_.isra.0
                0x0000000000000000       0x24 bn_bg_blocks_manager.o
 .text._ZN2bn17bg_blocks_manager12_GLOBAL__N_124_affine_map_blocks_countEii
                0x0000000000000000       0x40 bn_bg_blocks_manager.o
 .text._ZN2bn7bg_maps16used_cells_countEv
                0x0000000000000000       0x3c bn_bg_blocks_manager.o
 .text._ZN2bn7bg_maps21available_cells_countEv
                0x0000000000000000       0x10 bn_bg_blocks_manager.o
 .text._ZN2bn7bg_maps17used_blocks_countEv
                0x0000000000000000       0x38 bn_bg_blocks_manager.o
 .text._ZN2bn7bg_maps22available_blocks_countEv
                0x0000000000000000       0x10 bn_bg_blocks_manager.o
 .text._ZN2bn8bg_tiles16used_tiles_countEv
                0x0000000000000000       0x40 bn_bg_blocks_manager.o
 .text._ZN2bn8bg_tiles21available_tiles_countEv
                0x0000000000000000       0x14 bn_bg_blocks_manager.o
 .text._ZN2bn8bg_tiles17used_blocks_countEv
                0x0000000000000000       0x38 bn_bg_blocks_manager.o
 .text._ZN2bn8bg_tiles22available_blocks_countEv
                0x0000000000000000       0x10 bn_bg_blocks_manager.o
 .text._ZN2bn8bg_tiles12allow_offsetEv
                0x0000000000000000       0x10 bn_bg_blocks_manager.o
 .text._ZN2bn8bg_tiles16set_allow_offsetEb
                0x0000000000000000       0x10 bn_bg_blocks_manager.o
 .text._ZN2bn18regular_bg_map_ptrC2ERKS0_
                0x0000000000000000       0x20 bn_bg_blocks_manager.o
 .text._ZNK2bn18regular_bg_map_ptr3bigEv
                0x0000000000000000       0x28 bn_bg_blocks_manager.o
 .text._ZNK2bn18regular_bg_map_ptr11compressionEv
                0x0000000000000000       0x1c bn_bg_blocks_manager.o
 .text._ZN2bn20regular_bg_tiles_ptrC2ERKS0_
                0x0000000000000000       0x20 bn_bg_blocks_manager.o
 .text._ZNK2bn20regular_bg_tiles_ptr2idEv
                0x0000000000000000       0x18 bn_bg_blocks_manager.o
 .text._ZNK2bn20regular_bg_tiles_ptr11tiles_countEv
                0x0000000000000000       0x18 bn_bg_blocks_manager.o
 .text._ZNK2bn20regular_bg_tiles_ptr11compressionEv
                0x0000000000000000       0x1c bn_bg_blocks_manager.o
 .text._ZN2bn17affine_bg_map_ptrC2ERKS0_
                0x0000000000000000       0x20 bn_bg_blocks_manager.o
 .text._ZNK2bn17affine_bg_map_ptr3bigEv
                0x0000000000000000       0x40 bn_bg_blocks_manager.o
 .text._ZNK2bn17affine_bg_map_ptr11compressionEv
                0x0000000000000000       0x1c bn_bg_blocks_manager.o
 .text._ZN2bn19affine_bg_tiles_ptrC2ERKS0_
                0x0000000000000000       0x20 bn_bg_blocks_manager.o
 .text._ZNK2bn19affine_bg_tiles_ptr2idEv
                0x0000000000000000       0x18 bn_bg_blocks_manager.o
 .text._ZNK2bn19affine_bg_tiles_ptr11tiles_countEv
                0x0000000000000000       0x18 bn_bg_blocks_manager.o
 .text._ZNK2bn19affine_bg_tiles_ptr11compressionEv
                0x0000000000000000       0x1c bn_bg_blocks_manager.o
 .text._ZN2bn17bg_blocks_manager16used_tiles_countEv
                0x0000000000000000       0x40 bn_bg_blocks_manager.o
 .text._ZN2bn17bg_blocks_manager21available_tiles_countEv
                0x0000000000000000       0x14 bn_bg_blocks_manager.o
 .text._ZN2bn17bg_blocks_manager22used_tile_blocks_countEv
                0x0000000000000000       0x38 bn_bg_blocks_manager.o
 .text._ZN2bn17bg_blocks_manager27available_tile_blocks_countEv
                0x0000000000000000       0x10 bn_bg_blocks_manager.o
 .text._ZN2bn17bg_blocks_manager20used_map_cells_countEv
                0x0000000000000000       0x3c bn_bg_blocks_manager.o
 .text._ZN2bn17bg_blocks_manager25available_map_cells_countEv
                0x0000000000000000       0x10 bn_bg_blocks_manager.o
 .text._ZN2bn17bg_blocks_manager21used_map_blocks_countEv
                0x0000000000000000       0x38 bn_bg_blocks_manager.o
 .text._ZN2bn17bg_blocks_manager26available_map_blocks_countEv
                0x0000000000000000       0x10 bn_bg_blocks_manager.o
 .text._ZN2bn17bg_blocks_manager18allow_tiles_offsetEv
                0x0000000000000000       0x10 bn_bg_blocks_manager.o
 .text._ZN2bn17bg_blocks_manager22set_allow_tiles_offsetEb
                0x0000000000000000       0x10 bn_bg_blocks_manager.o
 .rodata._ZN2bn17bg_blocks_manager10log_statusEv.str1.4
                0x0000000000000000      0x109 bn_bg_blocks_manager.o
 .text._ZN2bn17bg_blocks_manager10log_statusEv
                0x0000000000000000      0x3f8 bn_bg_blocks_manager.o
 .text._ZN2bn7bg_maps10log_statusEv
                0x0000000000000000        0xc bn_bg_blocks_manager.o
 .text._ZN2bn8bg_tiles10log_statusEv
                0x0000000000000000        0xc bn_bg_blocks_manager.o
 .text._ZN2bn17bg_blocks_manager15increase_usagesEi
                0x0000000000000000       0x18 bn_bg_blocks_manager.o
 .text._ZN2bn18regular_bg_map_ptraSERKS0_
                0x0000000000000000       0x40 bn_bg_blocks_manager.o
 .text._ZN2bn18regular_bg_map_ptrD2Ev
                0x0000000000000000       0x18 bn_bg_blocks_manager.o
 .text._ZN2bn20regular_bg_tiles_ptraSERKS0_
                0x0000000000000000       0x40 bn_bg_blocks_manager.o
 .text._ZN2bn20regular_bg_tiles_ptrD2Ev
                0x0000000000000000       0x18 bn_bg_blocks_manager.o
 .text._ZN2bn17affine_bg_map_ptraSERKS0_
                0x0000000000000000       0x40 bn_bg_blocks_manager.o
 .text._ZN2bn17affine_bg_map_ptrD2Ev
                0x0000000000000000       0x18 bn_bg_blocks_manager.o
 .text._ZN2bn19affine_bg_tiles_ptraSERKS0_
                0x0000000000000000       0x40 bn_bg_blocks_manager.o
 .text._ZN2bn19affine_bg_tiles_ptrD2Ev
                0x0000000000000000       0x18 bn_bg_blocks_manager.o
 .text._ZN2bn17bg_blocks_manager5hw_idEi
                0x0000000000000000       0x14 bn_bg_blocks_manager.o
 .text._ZN2bn17bg_blocks_manager12hw_tiles_cbbEi
                0x0000000000000000       0x14 bn_bg_blocks_manager.o
 .text._ZN2bn17bg_blocks_manager11tiles_countEi
                0x0000000000000000       0x14 bn_bg_blocks_manager.o
 .text._ZN2bn17bg_blocks_manager14map_dimensionsEi
                0x0000000000000000       0x18 bn_bg_blocks_manager.o
 .text._ZN2bn17bg_blocks_manager15regular_big_mapEi
                0x0000000000000000       0x24 bn_bg_blocks_manager.o
 .text._ZN2bn17bg_blocks_manager14affine_big_mapEi
                0x0000000000000000       0x3c bn_bg_blocks_manager.o
 .text._ZN2bn17bg_blocks_manager11compressionEi
                0x0000000000000000       0x18 bn_bg_blocks_manager.o
 .text._ZN2bn17bg_blocks_manager24remove_regular_map_tilesEi
                0x0000000000000000       0x38 bn_bg_blocks_manager.o
 .text._ZN2bn17bg_blocks_manager23remove_affine_map_tilesEi
                0x0000000000000000       0x38 bn_bg_blocks_manager.o
 .text._ZN2bn17bg_blocks_manager18remove_map_paletteEi
                0x0000000000000000       0x2c bn_bg_blocks_manager.o
 .text._ZN3_bn6assert9show_argsIA27_ciEEvPKcS4_S4_iRKT_RKT0_
                0x0000000000000000       0x58 bn_bg_blocks_manager.o
 .text._ZN3_bn6assert9show_argsIA15_ciEEvPKcS4_S4_iRKT_RKT0_
                0x0000000000000000       0x58 bn_bg_blocks_manager.o
 .text._ZN3_bn6assert9show_argsIJA58_ciA4_ciS3_iS3_iEEEvPKcS5_S5_iDpRKT_
                0x0000000000000000       0x80 bn_bg_blocks_manager.o
 .text._ZN3_bn6assert9show_argsIA38_cEEvPKcS4_S4_iRKT_
                0x0000000000000000       0x50 bn_bg_blocks_manager.o
 .rodata._ZNK2bn19regular_bg_map_item10decompressERtRKNS_4sizeE.str1.4
                0x0000000000000000      0x14b bn_bg_blocks_manager.o
 .text._ZNK2bn19regular_bg_map_item10decompressERtRKNS_4sizeE
                0x0000000000000000      0x110 bn_bg_blocks_manager.o
 .rodata._ZNK2bn18affine_bg_map_item10decompressERhRKNS_4sizeE.str1.4
                0x0000000000000000       0x1c bn_bg_blocks_manager.o
 .text._ZNK2bn18affine_bg_map_item10decompressERhRKNS_4sizeE
                0x0000000000000000      0x110 bn_bg_blocks_manager.o
 .text._ZN3_bn6assert9show_argsIA33_cEEvPKcS4_S4_iRKT_
                0x0000000000000000       0x50 bn_bg_blocks_manager.o
 .text._ZN3_bn6assert9show_argsIJA44_cPKtA4_cS4_EEEvPKcS7_S7_iDpRKT_
                0x0000000000000000       0x6c bn_bg_blocks_manager.o
 .text._ZN3_bn6assert9show_argsIJA46_ciA4_ciEEEvPKcS5_S5_iDpRKT_
                0x0000000000000000       0x5c bn_bg_blocks_manager.o
 .rodata._ZN3_bn6assert9show_argsIJA37_cbA4_cbEEEvPKcS5_S5_iDpRKT_.str1.4
                0x0000000000000000        0xe bn_bg_blocks_manager.o
 .text._ZN3_bn6assert9show_argsIJA37_cbA4_cbEEEvPKcS5_S5_iDpRKT_
                0x0000000000000000       0x84 bn_bg_blocks_manager.o
 .rodata._ZN2bn17bg_blocks_manager12_GLOBAL__N_116_find_tiles_implEPKtNS_16compression_typeEib.str1.4
                0x0000000000000000      0x18e bn_bg_blocks_manager.o
 .text._ZN2bn17bg_blocks_manager12_GLOBAL__N_116_find_tiles_implEPKtNS_16compression_typeEib
                0x0000000000000000      0x1e8 bn_bg_blocks_manager.o
 .text._ZN2bn17bg_blocks_manager18find_regular_tilesERKNS_21regular_bg_tiles_itemE
                0x0000000000000000       0x1c bn_bg_blocks_manager.o
 .text._ZN2bn17bg_blocks_manager17find_affine_tilesERKNS_20affine_bg_tiles_itemE
                0x0000000000000000       0x1c bn_bg_blocks_manager.o
 .text._ZNK2bn20affine_bg_tiles_item10find_tilesEv
                0x0000000000000000       0x30 bn_bg_blocks_manager.o
 .text._ZNK2bn21regular_bg_tiles_item10find_tilesEv
                0x0000000000000000       0x30 bn_bg_blocks_manager.o
 .text._ZN2bn19affine_bg_tiles_ptr4findERKNS_20affine_bg_tiles_itemE
                0x0000000000000000       0x30 bn_bg_blocks_manager.o
 .text._ZN2bn20regular_bg_tiles_ptr4findERKNS_21regular_bg_tiles_itemE
                0x0000000000000000       0x30 bn_bg_blocks_manager.o
 .text._ZN3_bn6assert9show_argsIJA34_ciA4_ctEEEvPKcS5_S5_iDpRKT_
                0x0000000000000000       0x5c bn_bg_blocks_manager.o
 .text._ZN3_bn6assert9show_argsIJA36_ciA4_ctEEEvPKcS5_S5_iDpRKT_
                0x0000000000000000       0x5c bn_bg_blocks_manager.o
 .text._ZN3_bn6assert9show_argsIJA54_ciA4_ciEEEvPKcS5_S5_iDpRKT_
                0x0000000000000000       0x5c bn_bg_blocks_manager.o
 .text._ZN3_bn6assert9show_argsIA22_cEEvPKcS4_S4_iRKT_
                0x0000000000000000       0x50 bn_bg_blocks_manager.o
 .text._ZN2bn17bg_blocks_manager17regular_map_tilesEi
                0x0000000000000000       0x44 bn_bg_blocks_manager.o
 .text._ZN2bn17bg_blocks_manager16affine_map_tilesEi
                0x0000000000000000       0x44 bn_bg_blocks_manager.o
 .text._ZN2bn17bg_blocks_manager11map_paletteEi
                0x0000000000000000       0x44 bn_bg_blocks_manager.o
 .text._ZNK2bn18regular_bg_map_ptr7paletteEv
                0x0000000000000000       0x48 bn_bg_blocks_manager.o
 .text._ZNK2bn17affine_bg_map_ptr7paletteEv
                0x0000000000000000       0x48 bn_bg_blocks_manager.o
 .text._ZN2bn17bg_blocks_manager14palette_offsetEi
                0x0000000000000000       0x48 bn_bg_blocks_manager.o
 .text._ZNK2bn18regular_bg_map_ptr20palette_banks_offsetEv
                0x0000000000000000       0x48 bn_bg_blocks_manager.o
 .text._ZN2bn17bg_blocks_manager19affine_tiles_offsetEi
                0x0000000000000000       0x54 bn_bg_blocks_manager.o
 .text._ZNK2bn17affine_bg_map_ptr12tiles_offsetEv
                0x0000000000000000       0x58 bn_bg_blocks_manager.o
 .text._ZN2bn17bg_blocks_manager20regular_tiles_offsetEi
                0x0000000000000000       0x6c bn_bg_blocks_manager.o
 .text._ZNK2bn18regular_bg_map_ptr12tiles_offsetEv
                0x0000000000000000       0x70 bn_bg_blocks_manager.o
 .text._ZN2bn17bg_blocks_manager20set_affine_map_tilesEiONS_19affine_bg_tiles_ptrE
                0x0000000000000000      0x144 bn_bg_blocks_manager.o
 .text._ZN2bn17affine_bg_map_ptr9set_tilesERKNS_19affine_bg_tiles_ptrE
                0x0000000000000000       0x44 bn_bg_blocks_manager.o
 .text._ZN2bn17affine_bg_map_ptr9set_tilesEONS_19affine_bg_tiles_ptrE
                0x0000000000000000       0x14 bn_bg_blocks_manager.o
 .rodata._ZN2bn17bg_blocks_manager21set_regular_map_tilesEiONS_20regular_bg_tiles_ptrE.str1.4
                0x0000000000000000       0x82 bn_bg_blocks_manager.o
 .text._ZN2bn17bg_blocks_manager21set_regular_map_tilesEiONS_20regular_bg_tiles_ptrE
                0x0000000000000000      0x25c bn_bg_blocks_manager.o
 .text._ZN2bn18regular_bg_map_ptr9set_tilesERKNS_20regular_bg_tiles_ptrE
                0x0000000000000000       0x44 bn_bg_blocks_manager.o
 .text._ZN2bn18regular_bg_map_ptr9set_tilesEONS_20regular_bg_tiles_ptrE
                0x0000000000000000       0x14 bn_bg_blocks_manager.o
 .rodata._ZN2bn17bg_blocks_manager23set_regular_map_paletteEiONS_14bg_palette_ptrE.str1.4
                0x0000000000000000       0x8e bn_bg_blocks_manager.o
 .text._ZN2bn17bg_blocks_manager23set_regular_map_paletteEiONS_14bg_palette_ptrE
                0x0000000000000000      0x224 bn_bg_blocks_manager.o
 .text._ZN2bn18regular_bg_map_ptr11set_paletteERKNS_14bg_palette_ptrE
                0x0000000000000000       0x24 bn_bg_blocks_manager.o
 .text._ZN2bn18regular_bg_map_ptr11set_paletteEONS_14bg_palette_ptrE
                0x0000000000000000       0x14 bn_bg_blocks_manager.o
 .text._ZN2bn18regular_bg_map_ptr11set_paletteERKNS_15bg_palette_itemE
                0x0000000000000000       0xec bn_bg_blocks_manager.o
 .text._ZN3_bn6assert9show_argsIJA34_ciA4_ciEEEvPKcS5_S5_iDpRKT_
                0x0000000000000000       0x5c bn_bg_blocks_manager.o
 .text._ZN3_bn6assert9show_argsIJA38_ciA4_ciEEEvPKcS5_S5_iDpRKT_
                0x0000000000000000       0x5c bn_bg_blocks_manager.o
 .rodata._ZN2bn17bg_blocks_manager12_GLOBAL__N_122_find_regular_map_implERKNS_19regular_bg_map_itemERKNS_20regular_bg_tiles_ptrERKNS_14bg_palette_ptrE.str1.4
                0x0000000000000000      0x24d bn_bg_blocks_manager.o
 .text._ZN2bn17bg_blocks_manager12_GLOBAL__N_122_find_regular_map_implERKNS_19regular_bg_map_itemERKNS_20regular_bg_tiles_ptrERKNS_14bg_palette_ptrE
                0x0000000000000000      0x398 bn_bg_blocks_manager.o
 .text._ZN2bn17bg_blocks_manager16find_regular_mapERKNS_19regular_bg_map_itemERKNS_20regular_bg_tiles_ptrERKNS_14bg_palette_ptrE
                0x0000000000000000        0xc bn_bg_blocks_manager.o
 .text._ZN2bn18regular_bg_map_ptr4findERKNS_19regular_bg_map_itemERKNS_20regular_bg_tiles_ptrERKNS_14bg_palette_ptrE
                0x0000000000000000       0x28 bn_bg_blocks_manager.o
 .text._ZNK2bn19regular_bg_map_item8find_mapERKNS_20regular_bg_tiles_ptrERKNS_14bg_palette_ptrE
                0x0000000000000000       0x28 bn_bg_blocks_manager.o
 .text._ZN2bn18regular_bg_map_ptr4findERKNS_15regular_bg_itemE
                0x0000000000000000       0xb4 bn_bg_blocks_manager.o
 .text._ZN3_bn6assert9show_argsIA32_cEEvPKcS4_S4_iRKT_
                0x0000000000000000       0x50 bn_bg_blocks_manager.o
 .rodata._ZN2bn17bg_blocks_manager22set_affine_map_paletteEiONS_14bg_palette_ptrE.str1.4
                0x0000000000000000       0x5c bn_bg_blocks_manager.o
 .text._ZN2bn17bg_blocks_manager22set_affine_map_paletteEiONS_14bg_palette_ptrE
                0x0000000000000000       0x9c bn_bg_blocks_manager.o
 .text._ZN2bn17affine_bg_map_ptr11set_paletteERKNS_14bg_palette_ptrE
                0x0000000000000000       0x24 bn_bg_blocks_manager.o
 .text._ZN2bn17affine_bg_map_ptr11set_paletteERKNS_15bg_palette_itemE
                0x0000000000000000       0x24 bn_bg_blocks_manager.o
 .rodata._ZN2bn17bg_blocks_manager12_GLOBAL__N_121_find_affine_map_implERKNS_18affine_bg_map_itemERKNS_19affine_bg_tiles_ptrERKNS_14bg_palette_ptrE.str1.4
                0x0000000000000000       0x73 bn_bg_blocks_manager.o
 .text._ZN2bn17bg_blocks_manager12_GLOBAL__N_121_find_affine_map_implERKNS_18affine_bg_map_itemERKNS_19affine_bg_tiles_ptrERKNS_14bg_palette_ptrE
                0x0000000000000000      0x33c bn_bg_blocks_manager.o
 .text._ZN2bn17bg_blocks_manager15find_affine_mapERKNS_18affine_bg_map_itemERKNS_19affine_bg_tiles_ptrERKNS_14bg_palette_ptrE
                0x0000000000000000        0xc bn_bg_blocks_manager.o
 .text._ZN2bn17affine_bg_map_ptr4findERKNS_18affine_bg_map_itemERKNS_19affine_bg_tiles_ptrERKNS_14bg_palette_ptrE
                0x0000000000000000       0x28 bn_bg_blocks_manager.o
 .text._ZNK2bn18affine_bg_map_item8find_mapERKNS_19affine_bg_tiles_ptrERKNS_14bg_palette_ptrE
                0x0000000000000000       0x28 bn_bg_blocks_manager.o
 .text._ZN2bn17affine_bg_map_ptr4findERKNS_14affine_bg_itemE
                0x0000000000000000       0xb4 bn_bg_blocks_manager.o
 .text._ZN2bn17affine_bg_map_ptr11set_paletteEONS_14bg_palette_ptrE
                0x0000000000000000       0x94 bn_bg_blocks_manager.o
 .text._ZN3_bn6assert9show_argsIJA32_cA15_cPKtA16_ciA17_ciA34_cN2bn11string_viewEEEEvPKcSC_SC_iDpRKT_
                0x0000000000000000       0x94 bn_bg_blocks_manager.o
 .text._ZN3_bn6assert9show_argsIJA31_cA15_cPKtA16_ciA17_ciA34_cN2bn11string_viewEEEEvPKcSC_SC_iDpRKT_
                0x0000000000000000       0x94 bn_bg_blocks_manager.o
 .text._ZN3_bn6assert9show_argsIA46_cEEvPKcS4_S4_iRKT_
                0x0000000000000000       0x50 bn_bg_blocks_manager.o
 .text._ZN3_bn6assert9show_argsIJA30_cA13_cPKtA14_ciA15_ciA17_ciA34_cN2bn11string_viewEEEEvPKcSD_SD_iDpRKT_
                0x0000000000000000       0xa8 bn_bg_blocks_manager.o
 .text._ZN3_bn6assert9show_argsIA45_cEEvPKcS4_S4_iRKT_
                0x0000000000000000       0x50 bn_bg_blocks_manager.o
 .text._ZN3_bn6assert9show_argsIJA29_cA13_cPKtA14_ciA15_ciA17_ciA34_cN2bn11string_viewEEEEvPKcSD_SD_iDpRKT_
                0x0000000000000000       0xa8 bn_bg_blocks_manager.o
 .text._ZN3_bn6assert9show_argsIA47_cEEvPKcS4_S4_iRKT_
                0x0000000000000000       0x50 bn_bg_blocks_manager.o
 .text._ZN3_bn6assert9show_argsIJA36_cA15_cPKtA16_ciA17_ciA34_cN2bn11string_viewEEEEvPKcSC_SC_iDpRKT_
                0x0000000000000000       0x94 bn_bg_blocks_manager.o
 .text._ZN3_bn6assert9show_argsIJA35_cA15_cPKtA16_ciA17_ciA34_cN2bn11string_viewEEEEvPKcSC_SC_iDpRKT_
                0x0000000000000000       0x94 bn_bg_blocks_manager.o
 .text._ZN3_bn6assert9show_argsIJA49_ciA17_ciA34_cN2bn11string_viewEEEEvPKcS8_S8_iDpRKT_
                0x0000000000000000       0x7c bn_bg_blocks_manager.o
 .text._ZN3_bn6assert9show_argsIJA48_ciA17_ciA34_cN2bn11string_viewEEEEvPKcS8_S8_iDpRKT_
                0x0000000000000000       0x7c bn_bg_blocks_manager.o
 .text._ZN3_bn6assert9show_argsIA20_ciEEvPKcS4_S4_iRKT_RKT0_
                0x0000000000000000       0x58 bn_bg_blocks_manager.o
 .text._ZN3_bn6assert9show_argsIJA41_ciA4_ciEEEvPKcS5_S5_iDpRKT_
                0x0000000000000000       0x5c bn_bg_blocks_manager.o
 .text._ZN3_bn6assert9show_argsIJA31_cA14_ciA15_ciA17_ciA34_cN2bn11string_viewEEEEvPKcSA_SA_iDpRKT_
                0x0000000000000000       0x94 bn_bg_blocks_manager.o
 .rodata._ZN2bn17bg_blocks_manager6reloadEi.str1.4
                0x0000000000000000       0x25 bn_bg_blocks_manager.o
 .text._ZN2bn17bg_blocks_manager6reloadEi
                0x0000000000000000       0x54 bn_bg_blocks_manager.o
 .text._ZN2bn19affine_bg_tiles_ptr16reload_tiles_refEv
                0x0000000000000000       0x58 bn_bg_blocks_manager.o
 .text._ZN2bn17affine_bg_map_ptr16reload_cells_refEv
                0x0000000000000000       0x58 bn_bg_blocks_manager.o
 .text._ZN2bn20regular_bg_tiles_ptr16reload_tiles_refEv
                0x0000000000000000       0x58 bn_bg_blocks_manager.o
 .text._ZN2bn18regular_bg_map_ptr16reload_cells_refEv
                0x0000000000000000       0x58 bn_bg_blocks_manager.o
 .text._ZN3_bn6assert9show_argsIJA42_ciA4_ctEEEvPKcS5_S5_iDpRKT_
                0x0000000000000000       0x5c bn_bg_blocks_manager.o
 .text._ZN3_bn6assert9show_argsIJA44_ciA4_ctEEEvPKcS5_S5_iDpRKT_
                0x0000000000000000       0x5c bn_bg_blocks_manager.o
 .text._ZN3_bn6assert9show_argsIJA37_ciA4_ciEEEvPKcS5_S5_iDpRKT_
                0x0000000000000000       0x5c bn_bg_blocks_manager.o
 .rodata._ZN2bn17bg_blocks_manager33set_regular_map_tiles_and_paletteEiONS_20regular_bg_tiles_ptrEONS_14bg_palette_ptrE.str1.4
                0x0000000000000000       0x99 bn_bg_blocks_manager.o
 .text._ZN2bn17bg_blocks_manager33set_regular_map_tiles_and_paletteEiONS_20regular_bg_tiles_ptrEONS_14bg_palette_ptrE
                0x0000000000000000      0x2e8 bn_bg_blocks_manager.o
 .text._ZN2bn18regular_bg_map_ptr21set_tiles_and_paletteENS_20regular_bg_tiles_ptrENS_14bg_palette_ptrE
                0x0000000000000000       0x14 bn_bg_blocks_manager.o
 .text._ZN2bn17bg_blocks_manager9tiles_refEi
                0x0000000000000000       0x3c bn_bg_blocks_manager.o
 .text._ZNK2bn19affine_bg_tiles_ptr9tiles_refEv
                0x0000000000000000       0x3c bn_bg_blocks_manager.o
 .text._ZNK2bn20regular_bg_tiles_ptr9tiles_refEv
                0x0000000000000000       0x3c bn_bg_blocks_manager.o
 .rodata._ZNK2bn20affine_bg_tiles_item10decompressENS_4spanINS_4tileEEE.str1.4
                0x0000000000000000       0xbf bn_bg_blocks_manager.o
 .text._ZNK2bn20affine_bg_tiles_item10decompressENS_4spanINS_4tileEEE
                0x0000000000000000      0x154 bn_bg_blocks_manager.o
 .rodata._ZNK2bn21regular_bg_tiles_item10decompressENS_4spanINS_4tileEEE.str1.4
                0x0000000000000000       0x1f bn_bg_blocks_manager.o
 .text._ZNK2bn21regular_bg_tiles_item10decompressENS_4spanINS_4tileEEE
                0x0000000000000000      0x154 bn_bg_blocks_manager.o
 .rodata._ZN2bn17bg_blocks_manager24set_affine_map_cells_refEiRKNS_18affine_bg_map_itemE.str1.4
                0x0000000000000000      0x19f bn_bg_blocks_manager.o
 .text._ZN2bn17bg_blocks_manager24set_affine_map_cells_refEiRKNS_18affine_bg_map_itemE
                0x0000000000000000      0x304 bn_bg_blocks_manager.o
 .text._ZN2bn17affine_bg_map_ptr13set_cells_refERKNS_18affine_bg_map_itemE
                0x0000000000000000       0x14 bn_bg_blocks_manager.o
 .rodata._ZN2bn17bg_blocks_manager20set_affine_tiles_refEiRKNS_20affine_bg_tiles_itemE.str1.4
                0x0000000000000000       0x3f bn_bg_blocks_manager.o
 .text._ZN2bn17bg_blocks_manager20set_affine_tiles_refEiRKNS_20affine_bg_tiles_itemE
                0x0000000000000000      0x23c bn_bg_blocks_manager.o
 .text._ZN2bn19affine_bg_tiles_ptr13set_tiles_refERKNS_20affine_bg_tiles_itemE
                0x0000000000000000       0x14 bn_bg_blocks_manager.o
 .rodata._ZN2bn17bg_blocks_manager21set_regular_tiles_refEiRKNS_21regular_bg_tiles_itemE.str1.4
                0x0000000000000000       0x16 bn_bg_blocks_manager.o
 .text._ZN2bn17bg_blocks_manager21set_regular_tiles_refEiRKNS_21regular_bg_tiles_itemE
                0x0000000000000000      0x23c bn_bg_blocks_manager.o
 .text._ZN2bn20regular_bg_tiles_ptr13set_tiles_refERKNS_21regular_bg_tiles_itemE
                0x0000000000000000       0x14 bn_bg_blocks_manager.o
 .rodata._ZN2bn17bg_blocks_manager25set_regular_map_cells_refEiRKNS_19regular_bg_map_itemE.str1.4
                0x0000000000000000       0xa2 bn_bg_blocks_manager.o
 .text._ZN2bn17bg_blocks_manager25set_regular_map_cells_refEiRKNS_19regular_bg_map_itemE
                0x0000000000000000      0x2f4 bn_bg_blocks_manager.o
 .text._ZN2bn18regular_bg_map_ptr13set_cells_refERKNS_19regular_bg_map_itemE
                0x0000000000000000       0x14 bn_bg_blocks_manager.o
 .rodata._ZN2bn17bg_blocks_manager12_GLOBAL__N_112_create_itemEiibONS1_11create_dataE.str1.4
                0x0000000000000000       0x45 bn_bg_blocks_manager.o
 .text._ZN2bn17bg_blocks_manager12_GLOBAL__N_112_create_itemEiibONS1_11create_dataE
                0x0000000000000000      0x538 bn_bg_blocks_manager.o
 .text._ZN2bn17bg_blocks_manager12_GLOBAL__N_114_allocate_implEONS1_11create_dataE
                0x0000000000000000       0xf4 bn_bg_blocks_manager.o
 .rodata._ZN2bn17bg_blocks_manager22allocate_regular_tilesEiNS_8bpp_modeEb.str1.4
                0x0000000000000000       0xbd bn_bg_blocks_manager.o
 .text._ZN2bn17bg_blocks_manager22allocate_regular_tilesEiNS_8bpp_modeEb
                0x0000000000000000      0x160 bn_bg_blocks_manager.o
 .text._ZN2bn20regular_bg_tiles_ptr8allocateEiNS_8bpp_modeE
                0x0000000000000000       0x18 bn_bg_blocks_manager.o
 .text._ZN2bn20regular_bg_tiles_ptr17allocate_optionalEiNS_8bpp_modeE
                0x0000000000000000       0x28 bn_bg_blocks_manager.o
 .rodata._ZN2bn17bg_blocks_manager21allocate_affine_tilesEib.str1.4
                0x0000000000000000       0x80 bn_bg_blocks_manager.o
 .text._ZN2bn17bg_blocks_manager21allocate_affine_tilesEib
                0x0000000000000000      0x120 bn_bg_blocks_manager.o
 .text._ZN2bn19affine_bg_tiles_ptr8allocateEi
                0x0000000000000000       0x18 bn_bg_blocks_manager.o
 .text._ZN2bn19affine_bg_tiles_ptr17allocate_optionalEi
                0x0000000000000000       0x24 bn_bg_blocks_manager.o
 .rodata._ZN2bn17bg_blocks_manager20allocate_regular_mapERKNS_4sizeEONS_20regular_bg_tiles_ptrEONS_14bg_palette_ptrEb.str1.4
                0x0000000000000000      0x103 bn_bg_blocks_manager.o
 .text._ZN2bn17bg_blocks_manager20allocate_regular_mapERKNS_4sizeEONS_20regular_bg_tiles_ptrEONS_14bg_palette_ptrEb
                0x0000000000000000      0x2d0 bn_bg_blocks_manager.o
 .text._ZN2bn18regular_bg_map_ptr8allocateERKNS_4sizeENS_20regular_bg_tiles_ptrENS_14bg_palette_ptrE
                0x0000000000000000       0x1c bn_bg_blocks_manager.o
 .text._ZN2bn18regular_bg_map_ptr17allocate_optionalERKNS_4sizeENS_20regular_bg_tiles_ptrENS_14bg_palette_ptrE
                0x0000000000000000       0x28 bn_bg_blocks_manager.o
 .rodata._ZN2bn17bg_blocks_manager19allocate_affine_mapERKNS_4sizeEONS_19affine_bg_tiles_ptrEONS_14bg_palette_ptrEb.str1.4
                0x0000000000000000      0x113 bn_bg_blocks_manager.o
 .text._ZN2bn17bg_blocks_manager19allocate_affine_mapERKNS_4sizeEONS_19affine_bg_tiles_ptrEONS_14bg_palette_ptrEb
                0x0000000000000000      0x1fc bn_bg_blocks_manager.o
 .text._ZN2bn17affine_bg_map_ptr8allocateERKNS_4sizeENS_19affine_bg_tiles_ptrENS_14bg_palette_ptrE
                0x0000000000000000       0x1c bn_bg_blocks_manager.o
 .text._ZN2bn17affine_bg_map_ptr17allocate_optionalERKNS_4sizeENS_19affine_bg_tiles_ptrENS_14bg_palette_ptrE
                0x0000000000000000       0x28 bn_bg_blocks_manager.o
 .text._ZN2bn17bg_blocks_manager12_GLOBAL__N_112_create_implEONS1_11create_dataE
                0x0000000000000000      0x1d0 bn_bg_blocks_manager.o
 .rodata._ZN2bn17bg_blocks_manager20create_regular_tilesERKNS_21regular_bg_tiles_itemEb.str1.4
                0x0000000000000000       0x58 bn_bg_blocks_manager.o
 .text._ZN2bn17bg_blocks_manager20create_regular_tilesERKNS_21regular_bg_tiles_itemEb
                0x0000000000000000      0x148 bn_bg_blocks_manager.o
 .text._ZN2bn20regular_bg_tiles_ptr6createERKNS_21regular_bg_tiles_itemE
                0x0000000000000000       0x18 bn_bg_blocks_manager.o
 .text._ZNK2bn21regular_bg_tiles_item12create_tilesEv
                0x0000000000000000       0x18 bn_bg_blocks_manager.o
 .text._ZN2bn20regular_bg_tiles_ptr15create_optionalERKNS_21regular_bg_tiles_itemE
                0x0000000000000000       0x24 bn_bg_blocks_manager.o
 .text._ZNK2bn21regular_bg_tiles_item21create_tiles_optionalEv
                0x0000000000000000       0x24 bn_bg_blocks_manager.o
 .rodata._ZN2bn17bg_blocks_manager19create_affine_tilesERKNS_20affine_bg_tiles_itemEb.str1.4
                0x0000000000000000       0x33 bn_bg_blocks_manager.o
 .text._ZN2bn17bg_blocks_manager19create_affine_tilesERKNS_20affine_bg_tiles_itemEb
                0x0000000000000000      0x128 bn_bg_blocks_manager.o
 .text._ZN2bn19affine_bg_tiles_ptr6createERKNS_20affine_bg_tiles_itemE
                0x0000000000000000       0x18 bn_bg_blocks_manager.o
 .text._ZNK2bn20affine_bg_tiles_item12create_tilesEv
                0x0000000000000000       0x18 bn_bg_blocks_manager.o
 .text._ZN2bn19affine_bg_tiles_ptr15create_optionalERKNS_20affine_bg_tiles_itemE
                0x0000000000000000       0x24 bn_bg_blocks_manager.o
 .text._ZNK2bn20affine_bg_tiles_item21create_tiles_optionalEv
                0x0000000000000000       0x24 bn_bg_blocks_manager.o
 .rodata._ZN2bn17bg_blocks_manager18create_regular_mapERKNS_19regular_bg_map_itemEONS_20regular_bg_tiles_ptrEONS_14bg_palette_ptrEb.str1.4
                0x0000000000000000       0xaa bn_bg_blocks_manager.o
 .text._ZN2bn17bg_blocks_manager18create_regular_mapERKNS_19regular_bg_map_itemEONS_20regular_bg_tiles_ptrEONS_14bg_palette_ptrEb
                0x0000000000000000      0x280 bn_bg_blocks_manager.o
 .text._ZN2bn18regular_bg_map_ptr6createERKNS_19regular_bg_map_itemENS_20regular_bg_tiles_ptrENS_14bg_palette_ptrE
                0x0000000000000000       0x1c bn_bg_blocks_manager.o
 .text._ZNK2bn19regular_bg_map_item10create_mapENS_20regular_bg_tiles_ptrENS_14bg_palette_ptrE
                0x0000000000000000       0x48 bn_bg_blocks_manager.o
 .text._ZN2bn18regular_bg_map_ptr6createERKNS_15regular_bg_itemE
                0x0000000000000000       0x50 bn_bg_blocks_manager.o
 .text._ZN2bn18regular_bg_map_ptr15create_optionalERKNS_19regular_bg_map_itemENS_20regular_bg_tiles_ptrENS_14bg_palette_ptrE
                0x0000000000000000       0x28 bn_bg_blocks_manager.o
 .text._ZN2bn18regular_bg_map_ptr15create_optionalERKNS_15regular_bg_itemE
                0x0000000000000000       0xac bn_bg_blocks_manager.o
 .text._ZNK2bn19regular_bg_map_item19create_map_optionalENS_20regular_bg_tiles_ptrENS_14bg_palette_ptrE
                0x0000000000000000       0x54 bn_bg_blocks_manager.o
 .rodata._ZN2bn17bg_blocks_manager17create_affine_mapERKNS_18affine_bg_map_itemEONS_19affine_bg_tiles_ptrEONS_14bg_palette_ptrEb.str1.4
                0x0000000000000000       0x95 bn_bg_blocks_manager.o
 .text._ZN2bn17bg_blocks_manager17create_affine_mapERKNS_18affine_bg_map_itemEONS_19affine_bg_tiles_ptrEONS_14bg_palette_ptrEb
                0x0000000000000000      0x214 bn_bg_blocks_manager.o
 .text._ZN2bn17affine_bg_map_ptr6createERKNS_18affine_bg_map_itemENS_19affine_bg_tiles_ptrENS_14bg_palette_ptrE
                0x0000000000000000       0x1c bn_bg_blocks_manager.o
 .text._ZNK2bn18affine_bg_map_item10create_mapENS_19affine_bg_tiles_ptrENS_14bg_palette_ptrE
                0x0000000000000000       0x48 bn_bg_blocks_manager.o
 .text._ZN2bn17affine_bg_map_ptr6createERKNS_14affine_bg_itemE
                0x0000000000000000       0x50 bn_bg_blocks_manager.o
 .text._ZN2bn17affine_bg_map_ptr15create_optionalERKNS_18affine_bg_map_itemENS_19affine_bg_tiles_ptrENS_14bg_palette_ptrE
                0x0000000000000000       0x28 bn_bg_blocks_manager.o
 .text._ZN2bn17affine_bg_map_ptr15create_optionalERKNS_14affine_bg_itemE
                0x0000000000000000       0xac bn_bg_blocks_manager.o
 .text._ZNK2bn18affine_bg_map_item19create_map_optionalENS_19affine_bg_tiles_ptrENS_14bg_palette_ptrE
                0x0000000000000000       0x54 bn_bg_blocks_manager.o
 .rodata._ZN2bn17bg_blocks_manager24create_new_regular_tilesERKNS_21regular_bg_tiles_itemEb.str1.4
                0x0000000000000000       0x40 bn_bg_blocks_manager.o
 .text._ZN2bn17bg_blocks_manager24create_new_regular_tilesERKNS_21regular_bg_tiles_itemEb
                0x0000000000000000      0x19c bn_bg_blocks_manager.o
 .text._ZN2bn20regular_bg_tiles_ptr10create_newERKNS_21regular_bg_tiles_itemE
                0x0000000000000000       0x18 bn_bg_blocks_manager.o
 .text._ZNK2bn21regular_bg_tiles_item16create_new_tilesEv
                0x0000000000000000       0x18 bn_bg_blocks_manager.o
 .text._ZN2bn18regular_bg_map_ptr9set_tilesERKNS_21regular_bg_tiles_itemE
                0x0000000000000000       0xb0 bn_bg_blocks_manager.o
 .text._ZN2bn18regular_bg_map_ptr21set_tiles_and_paletteERKNS_21regular_bg_tiles_itemERKNS_15bg_palette_itemE
                0x0000000000000000      0x178 bn_bg_blocks_manager.o
 .text._ZN2bn20regular_bg_tiles_ptr19create_new_optionalERKNS_21regular_bg_tiles_itemE
                0x0000000000000000       0x24 bn_bg_blocks_manager.o
 .text._ZNK2bn21regular_bg_tiles_item25create_new_tiles_optionalEv
                0x0000000000000000       0x24 bn_bg_blocks_manager.o
 .rodata._ZN2bn17bg_blocks_manager23create_new_affine_tilesERKNS_20affine_bg_tiles_itemEb.str1.4
                0x0000000000000000       0x3b bn_bg_blocks_manager.o
 .text._ZN2bn17bg_blocks_manager23create_new_affine_tilesERKNS_20affine_bg_tiles_itemEb
                0x0000000000000000      0x194 bn_bg_blocks_manager.o
 .text._ZN2bn19affine_bg_tiles_ptr10create_newERKNS_20affine_bg_tiles_itemE
                0x0000000000000000       0x18 bn_bg_blocks_manager.o
 .text._ZNK2bn20affine_bg_tiles_item16create_new_tilesEv
                0x0000000000000000       0x18 bn_bg_blocks_manager.o
 .text._ZN2bn17affine_bg_map_ptr9set_tilesERKNS_20affine_bg_tiles_itemE
                0x0000000000000000       0xb0 bn_bg_blocks_manager.o
 .text._ZN2bn19affine_bg_tiles_ptr19create_new_optionalERKNS_20affine_bg_tiles_itemE
                0x0000000000000000       0x24 bn_bg_blocks_manager.o
 .text._ZNK2bn20affine_bg_tiles_item25create_new_tiles_optionalEv
                0x0000000000000000       0x24 bn_bg_blocks_manager.o
 .rodata._ZN2bn17bg_blocks_manager22create_new_regular_mapERKNS_19regular_bg_map_itemEONS_20regular_bg_tiles_ptrEONS_14bg_palette_ptrEb.str1.4
                0x0000000000000000       0x3a bn_bg_blocks_manager.o
 .text._ZN2bn17bg_blocks_manager22create_new_regular_mapERKNS_19regular_bg_map_itemEONS_20regular_bg_tiles_ptrEONS_14bg_palette_ptrEb
                0x0000000000000000      0x364 bn_bg_blocks_manager.o
 .text._ZN2bn18regular_bg_map_ptr10create_newERKNS_19regular_bg_map_itemENS_20regular_bg_tiles_ptrENS_14bg_palette_ptrE
                0x0000000000000000       0x1c bn_bg_blocks_manager.o
 .text._ZNK2bn19regular_bg_map_item14create_new_mapENS_20regular_bg_tiles_ptrENS_14bg_palette_ptrE
                0x0000000000000000       0x48 bn_bg_blocks_manager.o
 .text._ZN2bn18regular_bg_map_ptr10create_newERKNS_15regular_bg_itemE
                0x0000000000000000       0x50 bn_bg_blocks_manager.o
 .text._ZN2bn18regular_bg_map_ptr19create_new_optionalERKNS_19regular_bg_map_itemENS_20regular_bg_tiles_ptrENS_14bg_palette_ptrE
                0x0000000000000000       0x28 bn_bg_blocks_manager.o
 .text._ZN2bn18regular_bg_map_ptr19create_new_optionalERKNS_15regular_bg_itemE
                0x0000000000000000       0xac bn_bg_blocks_manager.o
 .text._ZNK2bn19regular_bg_map_item23create_new_map_optionalENS_20regular_bg_tiles_ptrENS_14bg_palette_ptrE
                0x0000000000000000       0x54 bn_bg_blocks_manager.o
 .rodata._ZN2bn17bg_blocks_manager21create_new_affine_mapERKNS_18affine_bg_map_itemEONS_19affine_bg_tiles_ptrEONS_14bg_palette_ptrEb.str1.4
                0x0000000000000000       0x39 bn_bg_blocks_manager.o
 .text._ZN2bn17bg_blocks_manager21create_new_affine_mapERKNS_18affine_bg_map_itemEONS_19affine_bg_tiles_ptrEONS_14bg_palette_ptrEb
                0x0000000000000000      0x2c8 bn_bg_blocks_manager.o
 .text._ZN2bn17affine_bg_map_ptr10create_newERKNS_18affine_bg_map_itemENS_19affine_bg_tiles_ptrENS_14bg_palette_ptrE
                0x0000000000000000       0x1c bn_bg_blocks_manager.o
 .text._ZNK2bn18affine_bg_map_item14create_new_mapENS_19affine_bg_tiles_ptrENS_14bg_palette_ptrE
                0x0000000000000000       0x48 bn_bg_blocks_manager.o
 .text._ZN2bn17affine_bg_map_ptr10create_newERKNS_14affine_bg_itemE
                0x0000000000000000       0x50 bn_bg_blocks_manager.o
 .text._ZN2bn17affine_bg_map_ptr19create_new_optionalERKNS_18affine_bg_map_itemENS_19affine_bg_tiles_ptrENS_14bg_palette_ptrE
                0x0000000000000000       0x28 bn_bg_blocks_manager.o
 .text._ZN2bn17affine_bg_map_ptr19create_new_optionalERKNS_14affine_bg_itemE
                0x0000000000000000       0xac bn_bg_blocks_manager.o
 .text._ZNK2bn18affine_bg_map_item23create_new_map_optionalENS_19affine_bg_tiles_ptrENS_14bg_palette_ptrE
                0x0000000000000000       0x54 bn_bg_blocks_manager.o
 .text._ZN3_bn6assert9show_argsIJA39_cPKtA4_ciEEEvPKcS7_S7_iDpRKT_
                0x0000000000000000       0x64 bn_bg_blocks_manager.o
 .text._ZN2bn17bg_blocks_manager21regular_map_cells_refEi
                0x0000000000000000       0x3c bn_bg_blocks_manager.o
 .text._ZNK2bn18regular_bg_map_ptr9cells_refEv
                0x0000000000000000       0x18 bn_bg_blocks_manager.o
 .text._ZN3_bn6assert9show_argsIJA39_cPKhA4_ciEEEvPKcS7_S7_iDpRKT_
                0x0000000000000000       0x64 bn_bg_blocks_manager.o
 .text._ZN2bn17bg_blocks_manager20affine_map_cells_refEi
                0x0000000000000000       0x3c bn_bg_blocks_manager.o
 .text._ZNK2bn17affine_bg_map_ptr9cells_refEv
                0x0000000000000000       0x18 bn_bg_blocks_manager.o
 .text._ZN3_bn6assert9show_argsIJA39_cPN2bn4tileEA4_ciEEEvPKcS8_S8_iDpRKT_
                0x0000000000000000       0x64 bn_bg_blocks_manager.o
 .text._ZN2bn17bg_blocks_manager10tiles_vramEi
                0x0000000000000000       0x48 bn_bg_blocks_manager.o
 .text._ZN2bn20regular_bg_tiles_ptr4vramEv
                0x0000000000000000       0x18 bn_bg_blocks_manager.o
 .text._ZN2bn19affine_bg_tiles_ptr4vramEv
                0x0000000000000000       0x18 bn_bg_blocks_manager.o
 .text._ZN3_bn6assert9show_argsIJA39_cPtA4_ciEEEvPKcS6_S6_iDpRKT_
                0x0000000000000000       0x64 bn_bg_blocks_manager.o
 .text._ZN2bn17bg_blocks_manager16regular_map_vramEi
                0x0000000000000000       0x4c bn_bg_blocks_manager.o
 .text._ZN2bn18regular_bg_map_ptr4vramEv
                0x0000000000000000       0x18 bn_bg_blocks_manager.o
 .text._ZN3_bn6assert9show_argsIJA39_cPhA4_ciEEEvPKcS6_S6_iDpRKT_
                0x0000000000000000       0x64 bn_bg_blocks_manager.o
 .text._ZN2bn17bg_blocks_manager15affine_map_vramEi
                0x0000000000000000       0x48 bn_bg_blocks_manager.o
 .text._ZN2bn17affine_bg_map_ptr4vramEv
                0x0000000000000000       0x18 bn_bg_blocks_manager.o
 .rodata.str1.4
                0x0000000000000000       0x2b bn_bg_blocks_manager.o
 .rodata._ZN2bn17bg_blocks_manager12_GLOBAL__N_1L19_status_log_messageE
                0x0000000000000000        0x8 bn_bg_blocks_manager.o
 .group         0x0000000000000000        0xc bn_bgs_manager.o
 .group         0x0000000000000000        0xc bn_bgs_manager.o
 .group         0x0000000000000000        0xc bn_bgs_manager.o
 .group         0x0000000000000000        0xc bn_bgs_manager.o
 .group         0x0000000000000000        0xc bn_bgs_manager.o
 .group         0x0000000000000000        0xc bn_bgs_manager.o
 .group         0x0000000000000000        0xc bn_bgs_manager.o
 .group         0x0000000000000000        0xc bn_bgs_manager.o
 .group         0x0000000000000000        0xc bn_bgs_manager.o
 .group         0x0000000000000000        0xc bn_bgs_manager.o
 .group         0x0000000000000000        0xc bn_bgs_manager.o
 .group         0x0000000000000000        0xc bn_bgs_manager.o
 .group         0x0000000000000000        0xc bn_bgs_manager.o
 .group         0x0000000000000000        0xc bn_bgs_manager.o
 .group         0x0000000000000000        0xc bn_bgs_manager.o
 .group         0x0000000000000000        0xc bn_bgs_manager.o
 .group         0x0000000000000000        0xc bn_bgs_manager.o
 .group         0x0000000000000000        0xc bn_bgs_manager.o
 .group         0x0000000000000000        0xc bn_bgs_manager.o
 .group         0x0000000000000000        0xc bn_bgs_manager.o
 .group         0x0000000000000000        0xc bn_bgs_manager.o
 .group         0x0000000000000000        0xc bn_bgs_manager.o
 .group         0x0000000000000000        0xc bn_bgs_manager.o
 .group         0x0000000000000000        0xc bn_bgs_manager.o
 .group         0x0000000000000000        0xc bn_bgs_manager.o
 .group         0x0000000000000000        0xc bn_bgs_manager.o
 .group         0x0000000000000000        0xc bn_bgs_manager.o
 .group         0x0000000000000000        0xc bn_bgs_manager.o
 .text          0x0000000000000000        0x0 bn_bgs_manager.o
 .data          0x0000000000000000        0x0 bn_bgs_manager.o
 .bss           0x0000000000000000        0x0 bn_bgs_manager.o
 .text._ZN2bn11bgs_manager12_GLOBAL__N_129_check_unique_regular_big_mapERNS1_9item_typeE
                0x0000000000000000       0x68 bn_bgs_manager.o
 .text._ZN2bn11bgs_manager12_GLOBAL__N_128_check_unique_affine_big_mapERNS1_9item_typeE
                0x0000000000000000       0x68 bn_bgs_manager.o
 .text._ZN2bn3bgs16used_items_countEv
                0x0000000000000000       0x10 bn_bgs_manager.o
 .text._ZN2bn3bgs21available_items_countEv
                0x0000000000000000       0x14 bn_bgs_manager.o
 .text._ZN2bn13affine_bg_ptrC2ERKS0_
                0x0000000000000000        0xc bn_bgs_manager.o
 .text._ZNK2bn13affine_bg_ptr3bigEv
                0x0000000000000000        0xc bn_bgs_manager.o
 .text._ZNK2bn13affine_bg_ptr1xEv
                0x0000000000000000        0x8 bn_bgs_manager.o
 .text._ZNK2bn13affine_bg_ptr1yEv
                0x0000000000000000        0x8 bn_bgs_manager.o
 .text._ZNK2bn13affine_bg_ptr8positionEv
                0x0000000000000000        0x4 bn_bgs_manager.o
 .text._ZNK2bn13affine_bg_ptr14rotation_angleEv
                0x0000000000000000        0x8 bn_bgs_manager.o
 .text._ZNK2bn13affine_bg_ptr16horizontal_scaleEv
                0x0000000000000000        0x8 bn_bgs_manager.o
 .text._ZNK2bn13affine_bg_ptr14vertical_scaleEv
                0x0000000000000000        0x8 bn_bgs_manager.o
 .text._ZNK2bn13affine_bg_ptr16horizontal_shearEv
                0x0000000000000000        0x8 bn_bgs_manager.o
 .text._ZNK2bn13affine_bg_ptr14vertical_shearEv
                0x0000000000000000        0x8 bn_bgs_manager.o
 .text._ZNK2bn13affine_bg_ptr15horizontal_flipEv
                0x0000000000000000        0xc bn_bgs_manager.o
 .text._ZNK2bn13affine_bg_ptr13vertical_flipEv
                0x0000000000000000        0xc bn_bgs_manager.o
 .text._ZNK2bn13affine_bg_ptr7pivot_xEv
                0x0000000000000000        0x8 bn_bgs_manager.o
 .text._ZNK2bn13affine_bg_ptr7pivot_yEv
                0x0000000000000000        0x8 bn_bgs_manager.o
 .text._ZNK2bn13affine_bg_ptr14pivot_positionEv
                0x0000000000000000        0x8 bn_bgs_manager.o
 .text._ZNK2bn13affine_bg_ptr14mat_attributesEv
                0x0000000000000000        0x8 bn_bgs_manager.o
 .text._ZNK2bn13affine_bg_ptr8priorityEv
                0x0000000000000000        0x8 bn_bgs_manager.o
 .text._ZNK2bn13affine_bg_ptr7z_orderEv
                0x0000000000000000       0x14 bn_bgs_manager.o
 .text._ZNK2bn13affine_bg_ptr16wrapping_enabledEv
                0x0000000000000000        0xc bn_bgs_manager.o
 .text._ZN2bn13affine_bg_ptr20set_wrapping_enabledEb
                0x0000000000000000       0x50 bn_bgs_manager.o
 .text._ZNK2bn13affine_bg_ptr14mosaic_enabledEv
                0x0000000000000000        0xc bn_bgs_manager.o
 .text._ZN2bn13affine_bg_ptr18set_mosaic_enabledEb
                0x0000000000000000       0x48 bn_bgs_manager.o
 .text._ZNK2bn13affine_bg_ptr16blending_enabledEv
                0x0000000000000000        0xc bn_bgs_manager.o
 .text._ZN2bn13affine_bg_ptr20set_blending_enabledEb
                0x0000000000000000       0x3c bn_bgs_manager.o
 .text._ZNK2bn13affine_bg_ptr7visibleEv
                0x0000000000000000        0xc bn_bgs_manager.o
 .text._ZN2bn13affine_bg_ptr11set_visibleEb
                0x0000000000000000       0x30 bn_bgs_manager.o
 .text._ZNK2bn13affine_bg_ptr17visible_in_windowERKNS_6windowE
                0x0000000000000000       0x14 bn_bgs_manager.o
 .text._ZN2bn13affine_bg_ptr21set_visible_in_windowEbRNS_6windowE
                0x0000000000000000       0x14 bn_bgs_manager.o
 .text._ZNK2bn13affine_bg_ptr6cameraEv
                0x0000000000000000        0x8 bn_bgs_manager.o
 .text._ZNK2bn14affine_bg_item10decompressENS_4spanINS_4tileEEENS1_INS_5colorEEERhRKNS_4sizeE
                0x0000000000000000       0x7c bn_bgs_manager.o
 .text._ZNK2bn14affine_bg_item8find_mapEv
                0x0000000000000000       0x10 bn_bgs_manager.o
 .text._ZNK2bn14affine_bg_item10create_mapEv
                0x0000000000000000       0x10 bn_bgs_manager.o
 .text._ZNK2bn14affine_bg_item14create_new_mapEv
                0x0000000000000000       0x10 bn_bgs_manager.o
 .text._ZNK2bn14affine_bg_item19create_map_optionalEv
                0x0000000000000000       0x10 bn_bgs_manager.o
 .text._ZNK2bn14affine_bg_item23create_new_map_optionalEv
                0x0000000000000000       0x10 bn_bgs_manager.o
 .text._ZNK2bn17affine_bg_builder12map_optionalEv
                0x0000000000000000       0x90 bn_bgs_manager.o
 .text._ZN2bn17affine_bg_builder20release_map_optionalEv
                0x0000000000000000       0xa4 bn_bgs_manager.o
 .text._ZN2bn14regular_bg_ptrC2ERKS0_
                0x0000000000000000        0xc bn_bgs_manager.o
 .text._ZNK2bn14regular_bg_ptr3bigEv
                0x0000000000000000        0xc bn_bgs_manager.o
 .text._ZNK2bn14regular_bg_ptr1xEv
                0x0000000000000000        0x8 bn_bgs_manager.o
 .text._ZNK2bn14regular_bg_ptr1yEv
                0x0000000000000000        0x8 bn_bgs_manager.o
 .text._ZNK2bn14regular_bg_ptr8positionEv
                0x0000000000000000        0x4 bn_bgs_manager.o
 .text._ZNK2bn14regular_bg_ptr8priorityEv
                0x0000000000000000        0x8 bn_bgs_manager.o
 .text._ZNK2bn14regular_bg_ptr7z_orderEv
                0x0000000000000000       0x14 bn_bgs_manager.o
 .text._ZNK2bn14regular_bg_ptr14mosaic_enabledEv
                0x0000000000000000        0xc bn_bgs_manager.o
 .text._ZN2bn14regular_bg_ptr18set_mosaic_enabledEb
                0x0000000000000000       0x48 bn_bgs_manager.o
 .text._ZNK2bn14regular_bg_ptr16blending_enabledEv
                0x0000000000000000        0xc bn_bgs_manager.o
 .text._ZN2bn14regular_bg_ptr20set_blending_enabledEb
                0x0000000000000000       0x3c bn_bgs_manager.o
 .text._ZNK2bn14regular_bg_ptr7visibleEv
                0x0000000000000000        0xc bn_bgs_manager.o
 .text._ZN2bn14regular_bg_ptr11set_visibleEb
                0x0000000000000000       0x30 bn_bgs_manager.o
 .text._ZNK2bn14regular_bg_ptr17visible_in_windowERKNS_6windowE
                0x0000000000000000       0x14 bn_bgs_manager.o
 .text._ZN2bn14regular_bg_ptr21set_visible_in_windowEbRNS_6windowE
                0x0000000000000000       0x14 bn_bgs_manager.o
 .text._ZNK2bn14regular_bg_ptr6cameraEv
                0x0000000000000000        0x8 bn_bgs_manager.o
 .text._ZNK2bn15regular_bg_item10decompressENS_4spanINS_4tileEEENS1_INS_5colorEEERtRKNS_4sizeE
                0x0000000000000000       0x7c bn_bgs_manager.o
 .text._ZNK2bn15regular_bg_item8find_mapEv
                0x0000000000000000       0x10 bn_bgs_manager.o
 .text._ZNK2bn15regular_bg_item10create_mapEv
                0x0000000000000000       0x10 bn_bgs_manager.o
 .text._ZNK2bn15regular_bg_item14create_new_mapEv
                0x0000000000000000       0x10 bn_bgs_manager.o
 .text._ZNK2bn15regular_bg_item19create_map_optionalEv
                0x0000000000000000       0x10 bn_bgs_manager.o
 .text._ZNK2bn15regular_bg_item23create_new_map_optionalEv
                0x0000000000000000       0x10 bn_bgs_manager.o
 .text._ZNK2bn18regular_bg_builder12map_optionalEv
                0x0000000000000000       0x88 bn_bgs_manager.o
 .text._ZN2bn18regular_bg_builder20release_map_optionalEv
                0x0000000000000000       0x9c bn_bgs_manager.o
 .text._ZN2bn11bgs_manager10used_countEv
                0x0000000000000000       0x10 bn_bgs_manager.o
 .text._ZN2bn11bgs_manager15available_countEv
                0x0000000000000000       0x14 bn_bgs_manager.o
 .text._ZN2bn11bgs_manager15increase_usagesEPv
                0x0000000000000000        0x8 bn_bgs_manager.o
 .text._ZN2bn11bgs_manager3bigEPv
                0x0000000000000000        0xc bn_bgs_manager.o
 .text._ZN2bn11bgs_manager18remove_regular_mapEPv
                0x0000000000000000       0x1c bn_bgs_manager.o
 .text._ZN2bn11bgs_manager17remove_affine_mapEPv
                0x0000000000000000       0x1c bn_bgs_manager.o
 .text._ZN2bn11bgs_manager8positionEPv
                0x0000000000000000        0x4 bn_bgs_manager.o
 .text._ZN2bn11bgs_manager14rotation_angleEPv
                0x0000000000000000        0x4 bn_bgs_manager.o
 .text._ZN2bn11bgs_manager16horizontal_scaleEPv
                0x0000000000000000        0x4 bn_bgs_manager.o
 .text._ZN2bn11bgs_manager14vertical_scaleEPv
                0x0000000000000000        0x4 bn_bgs_manager.o
 .text._ZN2bn11bgs_manager16horizontal_shearEPv
                0x0000000000000000        0x4 bn_bgs_manager.o
 .text._ZN2bn11bgs_manager14vertical_shearEPv
                0x0000000000000000        0x4 bn_bgs_manager.o
 .text._ZN2bn11bgs_manager15horizontal_flipEPv
                0x0000000000000000        0x8 bn_bgs_manager.o
 .text._ZN2bn11bgs_manager13vertical_flipEPv
                0x0000000000000000        0x8 bn_bgs_manager.o
 .text._ZN2bn11bgs_manager14pivot_positionEPv
                0x0000000000000000        0x4 bn_bgs_manager.o
 .text._ZN2bn11bgs_manager8priorityEPv
                0x0000000000000000        0x8 bn_bgs_manager.o
 .text._ZN2bn11bgs_manager7z_orderEPv
                0x0000000000000000       0x10 bn_bgs_manager.o
 .text._ZN2bn11bgs_manager9put_aboveEPv
                0x0000000000000000       0x68 bn_bgs_manager.o
 .text._ZN2bn13affine_bg_ptr9put_aboveEv
                0x0000000000000000       0x10 bn_bgs_manager.o
 .text._ZN2bn14regular_bg_ptr9put_aboveEv
                0x0000000000000000       0x10 bn_bgs_manager.o
 .text._ZN2bn11bgs_manager9put_belowEPv
                0x0000000000000000       0x6c bn_bgs_manager.o
 .text._ZN2bn13affine_bg_ptr9put_belowEv
                0x0000000000000000       0x10 bn_bgs_manager.o
 .text._ZN2bn14regular_bg_ptr9put_belowEv
                0x0000000000000000       0x10 bn_bgs_manager.o
 .text._ZN2bn11bgs_manager16wrapping_enabledEPv
                0x0000000000000000        0xc bn_bgs_manager.o
 .text._ZN2bn11bgs_manager20set_wrapping_enabledEPvb
                0x0000000000000000       0x4c bn_bgs_manager.o
 .text._ZN2bn11bgs_manager14mosaic_enabledEPv
                0x0000000000000000        0xc bn_bgs_manager.o
 .text._ZN2bn11bgs_manager18set_mosaic_enabledEPvb
                0x0000000000000000       0x44 bn_bgs_manager.o
 .text._ZN2bn11bgs_manager16blending_enabledEPv
                0x0000000000000000        0xc bn_bgs_manager.o
 .text._ZN2bn11bgs_manager20set_blending_enabledEPvb
                0x0000000000000000       0x38 bn_bgs_manager.o
 .text._ZN2bn11bgs_manager7visibleEPv
                0x0000000000000000        0xc bn_bgs_manager.o
 .text._ZN2bn11bgs_manager11set_visibleEPvb
                0x0000000000000000       0x30 bn_bgs_manager.o
 .text._ZN2bn11bgs_manager14show_in_windowEPvi
                0x0000000000000000        0x8 bn_bgs_manager.o
 .text._ZN2bn11bgs_manager18set_show_in_windowEPvib
                0x0000000000000000       0x18 bn_bgs_manager.o
 .text._ZN2bn11bgs_manager22set_show_all_in_windowEib
                0x0000000000000000       0x44 bn_bgs_manager.o
 .text._ZN2bn11bgs_manager6cameraEPv
                0x0000000000000000        0x4 bn_bgs_manager.o
 .text._ZN2bn11bgs_manager28update_regular_map_tiles_cbbEii
                0x0000000000000000       0xa8 bn_bgs_manager.o
 .text._ZN2bn11bgs_manager27update_affine_map_tiles_cbbEii
                0x0000000000000000       0xa8 bn_bgs_manager.o
 .text._ZN2bn11bgs_manager30update_regular_map_palette_bppEiNS_8bpp_modeE
                0x0000000000000000       0xac bn_bgs_manager.o
 .text._ZN2bn11bgs_manager6reloadEv
                0x0000000000000000       0x14 bn_bgs_manager.o
 .text._ZN3_bn6assert9show_argsIA18_ciEEvPKcS4_S4_iRKT_RKT0_
                0x0000000000000000       0x58 bn_bgs_manager.o
 .rodata._ZN2bn17affine_bg_builder11set_z_orderEi.str1.4
                0x0000000000000000       0x7a bn_bgs_manager.o
 .text._ZN2bn17affine_bg_builder11set_z_orderEi
                0x0000000000000000       0x48 bn_bgs_manager.o
 .rodata._ZN2bn18regular_bg_builder11set_z_orderEi.str1.4
                0x0000000000000000       0x1c bn_bgs_manager.o
 .text._ZN2bn18regular_bg_builder11set_z_orderEi
                0x0000000000000000       0x48 bn_bgs_manager.o
 .text._ZN3_bn6assert9show_argsIA16_ciEEvPKcS4_S4_iRKT_RKT0_
                0x0000000000000000       0x58 bn_bgs_manager.o
 .text._ZN3_bn6assert9show_argsIA17_ciEEvPKcS4_S4_iRKT_RKT0_
                0x0000000000000000       0x58 bn_bgs_manager.o
 .rodata._ZN2bn11bgs_manager10dimensionsEPv.str1.4
                0x0000000000000000       0x4d bn_bgs_manager.o
 .text._ZN2bn11bgs_manager10dimensionsEPv
                0x0000000000000000       0x64 bn_bgs_manager.o
 .text._ZNK2bn13affine_bg_ptr10dimensionsEv
                0x0000000000000000       0x64 bn_bgs_manager.o
 .text._ZNK2bn14regular_bg_ptr10dimensionsEv
                0x0000000000000000       0x64 bn_bgs_manager.o
 .text._ZN3_bn6assert9show_argsIA33_cEEvPKcS4_S4_iRKT_
                0x0000000000000000       0x50 bn_bgs_manager.o
 .text._ZN3_bn6assert9show_argsIA19_ciEEvPKcS4_S4_iRKT_RKT0_
                0x0000000000000000       0x58 bn_bgs_manager.o
 .rodata._ZN2bn17affine_bg_builder12set_priorityEi.str1.4
                0x0000000000000000       0x57 bn_bgs_manager.o
 .text._ZN2bn17affine_bg_builder12set_priorityEi
                0x0000000000000000       0x38 bn_bgs_manager.o
 .rodata._ZN2bn20affine_bg_attributesC2ERKNS_17affine_bg_map_ptrEibb.str1.4
                0x0000000000000000       0x36 bn_bgs_manager.o
 .text._ZN2bn20affine_bg_attributesC2ERKNS_17affine_bg_map_ptrEibb
                0x0000000000000000       0x4c bn_bgs_manager.o
 .text._ZN2bn20affine_bg_attributesC2EONS_17affine_bg_map_ptrEibb
                0x0000000000000000       0x4c bn_bgs_manager.o
 .text._ZN2bn20affine_bg_attributes12set_priorityEi
                0x0000000000000000       0x38 bn_bgs_manager.o
 .text._ZN2bn18regular_bg_builder12set_priorityEi
                0x0000000000000000       0x38 bn_bgs_manager.o
 .rodata._ZN2bn21regular_bg_attributesC2ERKNS_18regular_bg_map_ptrEib.str1.4
                0x0000000000000000       0x37 bn_bgs_manager.o
 .text._ZN2bn21regular_bg_attributesC2ERKNS_18regular_bg_map_ptrEib
                0x0000000000000000       0x48 bn_bgs_manager.o
 .text._ZN2bn21regular_bg_attributesC2EONS_18regular_bg_map_ptrEib
                0x0000000000000000       0x48 bn_bgs_manager.o
 .text._ZN2bn21regular_bg_attributes12set_priorityEi
                0x0000000000000000       0x38 bn_bgs_manager.o
 .text._ZN2bn11bgs_manager13set_regular_xEPvNS_7fixed_tILi12EEE
                0x0000000000000000       0xa4 bn_bgs_manager.o
 .text._ZN2bn14regular_bg_ptr5set_xENS_7fixed_tILi12EEE
                0x0000000000000000       0xa8 bn_bgs_manager.o
 .text._ZN3_bn6assert9show_argsIJA58_ciA4_ciEEEvPKcS5_S5_iDpRKT_
                0x0000000000000000       0x5c bn_bgs_manager.o
 .text._ZN2bn11bgs_manager20set_regular_positionEPvRKNS_11fixed_pointE
                0x0000000000000000       0xf8 bn_bgs_manager.o
 .text._ZN2bn14regular_bg_ptr12set_positionENS_7fixed_tILi12EEES2_
                0x0000000000000000       0x18 bn_bgs_manager.o
 .text._ZN2bn14regular_bg_ptr12set_positionERKNS_11fixed_pointE
                0x0000000000000000       0x10 bn_bgs_manager.o
 .text._ZN2bn14regular_bg_ptr5set_yENS_7fixed_tILi12EEE
                0x0000000000000000       0xa8 bn_bgs_manager.o
 .text._ZN2bn11bgs_manager13set_regular_yEPvNS_7fixed_tILi12EEE
                0x0000000000000000       0xa4 bn_bgs_manager.o
 .text._ZN2bn11bgs_manager12_GLOBAL__N_19item_type18update_affine_hw_xEv
                0x0000000000000000       0x84 bn_bgs_manager.o
 .text._ZN2bn13affine_bg_ptr5set_xENS_7fixed_tILi12EEE
                0x0000000000000000       0xfc bn_bgs_manager.o
 .text._ZN2bn11bgs_manager12set_affine_xEPvNS_7fixed_tILi12EEE
                0x0000000000000000       0xfc bn_bgs_manager.o
 .text._ZN2bn13affine_bg_ptr11set_pivot_xENS_7fixed_tILi12EEE
                0x0000000000000000       0xb0 bn_bgs_manager.o
 .text._ZN2bn11bgs_manager11set_pivot_xEPvNS_7fixed_tILi12EEE
                0x0000000000000000       0xac bn_bgs_manager.o
 .text._ZN2bn11bgs_manager12_GLOBAL__N_19item_type18update_affine_hw_yEv
                0x0000000000000000       0x84 bn_bgs_manager.o
 .text._ZN2bn11bgs_manager18set_mat_attributesEPvRKNS_21affine_mat_attributesE
                0x0000000000000000      0x114 bn_bgs_manager.o
 .text._ZN2bn13affine_bg_ptr18set_mat_attributesERKNS_21affine_mat_attributesE
                0x0000000000000000       0x10 bn_bgs_manager.o
 .text._ZN2bn11bgs_manager19set_affine_positionEPvRKNS_11fixed_pointE
                0x0000000000000000      0x154 bn_bgs_manager.o
 .text._ZN2bn13affine_bg_ptr12set_positionENS_7fixed_tILi12EEES2_
                0x0000000000000000       0x18 bn_bgs_manager.o
 .text._ZN2bn13affine_bg_ptr12set_positionERKNS_11fixed_pointE
                0x0000000000000000       0x10 bn_bgs_manager.o
 .text._ZN2bn11bgs_manager13remove_cameraEPv
                0x0000000000000000      0x16c bn_bgs_manager.o
 .text._ZN2bn13affine_bg_ptr13remove_cameraEv
                0x0000000000000000       0x10 bn_bgs_manager.o
 .text._ZN2bn14regular_bg_ptr13remove_cameraEv
                0x0000000000000000       0x10 bn_bgs_manager.o
 .text._ZN2bn11bgs_manager9set_shearEPvNS_7fixed_tILi12EEE
                0x0000000000000000      0x168 bn_bgs_manager.o
 .text._ZN2bn13affine_bg_ptr9set_shearENS_7fixed_tILi12EEE
                0x0000000000000000       0x10 bn_bgs_manager.o
 .text._ZN2bn13affine_bg_ptr19set_horizontal_flipEb
                0x0000000000000000       0x94 bn_bgs_manager.o
 .text._ZN2bn11bgs_manager19set_horizontal_flipEPvb
                0x0000000000000000       0x94 bn_bgs_manager.o
 .text._ZN2bn13affine_bg_ptr18set_vertical_shearENS_7fixed_tILi12EEE
                0x0000000000000000       0x84 bn_bgs_manager.o
 .text._ZN2bn13affine_bg_ptr20set_horizontal_shearENS_7fixed_tILi12EEE
                0x0000000000000000       0x88 bn_bgs_manager.o
 .text._ZN2bn11bgs_manager18set_vertical_shearEPvNS_7fixed_tILi12EEE
                0x0000000000000000       0x84 bn_bgs_manager.o
 .text._ZN2bn11bgs_manager20set_horizontal_shearEPvNS_7fixed_tILi12EEE
                0x0000000000000000       0x88 bn_bgs_manager.o
 .text._ZN2bn11bgs_manager10set_cameraEPvONS_10camera_ptrE
                0x0000000000000000      0x21c bn_bgs_manager.o
 .text._ZN2bn13affine_bg_ptr10set_cameraERKNS_10camera_ptrE
                0x0000000000000000       0x24 bn_bgs_manager.o
 .text._ZN2bn13affine_bg_ptr10set_cameraEONS_10camera_ptrE
                0x0000000000000000       0x10 bn_bgs_manager.o
 .text._ZN2bn14regular_bg_ptr10set_cameraERKNS_10camera_ptrE
                0x0000000000000000       0x24 bn_bgs_manager.o
 .text._ZN2bn14regular_bg_ptr10set_cameraEONS_10camera_ptrE
                0x0000000000000000       0x10 bn_bgs_manager.o
 .text._ZN2bn13affine_bg_ptr10set_cameraERKNS_8optionalINS_10camera_ptrEEE
                0x0000000000000000       0x30 bn_bgs_manager.o
 .text._ZN2bn13affine_bg_ptr10set_cameraEONS_8optionalINS_10camera_ptrEEE
                0x0000000000000000       0x1c bn_bgs_manager.o
 .text._ZN2bn14regular_bg_ptr10set_cameraERKNS_8optionalINS_10camera_ptrEEE
                0x0000000000000000       0x30 bn_bgs_manager.o
 .text._ZN2bn14regular_bg_ptr10set_cameraEONS_8optionalINS_10camera_ptrEEE
                0x0000000000000000       0x1c bn_bgs_manager.o
 .text._ZN2bn13affine_bg_ptr18set_pivot_positionERKNS_11fixed_pointE
                0x0000000000000000      0x100 bn_bgs_manager.o
 .text._ZN2bn11bgs_manager18set_pivot_positionEPvRKNS_11fixed_pointE
                0x0000000000000000      0x100 bn_bgs_manager.o
 .text._ZN2bn13affine_bg_ptr18set_pivot_positionENS_7fixed_tILi12EEES2_
                0x0000000000000000       0xf4 bn_bgs_manager.o
 .text._ZN2bn13affine_bg_ptr5set_yENS_7fixed_tILi12EEE
                0x0000000000000000       0xf4 bn_bgs_manager.o
 .text._ZN2bn11bgs_manager12set_affine_yEPvNS_7fixed_tILi12EEE
                0x0000000000000000       0xf4 bn_bgs_manager.o
 .text._ZN2bn13affine_bg_ptr11set_pivot_yENS_7fixed_tILi12EEE
                0x0000000000000000       0xb0 bn_bgs_manager.o
 .text._ZN2bn11bgs_manager11set_pivot_yEPvNS_7fixed_tILi12EEE
                0x0000000000000000       0xac bn_bgs_manager.o
 .text._ZN2bn11bgs_manager9set_shearEPvNS_7fixed_tILi12EEES3_
                0x0000000000000000      0x16c bn_bgs_manager.o
 .text._ZN2bn13affine_bg_ptr9set_shearENS_7fixed_tILi12EEES2_
                0x0000000000000000       0x10 bn_bgs_manager.o
 .text._ZN2bn11bgs_manager17set_vertical_flipEPvb
                0x0000000000000000      0x100 bn_bgs_manager.o
 .text._ZN2bn13affine_bg_ptr17set_vertical_flipEb
                0x0000000000000000      0x100 bn_bgs_manager.o
 .text._ZN3_bn6assert9show_argsIA46_cEEvPKcS4_S4_iRKT_
                0x0000000000000000       0x50 bn_bgs_manager.o
 .text._ZN3_bn6assert9show_argsIA45_cEEvPKcS4_S4_iRKT_
                0x0000000000000000       0x50 bn_bgs_manager.o
 .text._ZN3_bn6assert9show_argsIA24_cEEvPKcS4_S4_iRKT_
                0x0000000000000000       0x50 bn_bgs_manager.o
 .text._ZN2bn11bgs_manager15rebuild_handlesEv
                0x0000000000000000       0x1c bn_bgs_manager.o
 .text._ZNK2bn13affine_bg_ptr5hw_idEv
                0x0000000000000000       0x3c bn_bgs_manager.o
 .text._ZNK2bn14regular_bg_ptr5hw_idEv
                0x0000000000000000       0x3c bn_bgs_manager.o
 .text._ZN2bn13ostringstream6appendILi12EEEvNS_7fixed_tIXT_EEE
                0x0000000000000000       0xa0 bn_bgs_manager.o
 .text._ZN3_bn6assert9show_argsIA16_cN2bn7fixed_tILi12EEEEEvPKcS7_S7_iRKT_RKT0_
                0x0000000000000000       0x58 bn_bgs_manager.o
 .text._ZN3_bn6assert9show_argsIA17_cN2bn7fixed_tILi12EEEEEvPKcS7_S7_iRKT_RKT0_
                0x0000000000000000       0x58 bn_bgs_manager.o
 .text._ZN3_bn6assert9show_argsIA38_cN2bn7fixed_tILi12EEEEEvPKcS7_S7_iRKT_RKT0_
                0x0000000000000000       0x58 bn_bgs_manager.o
 .rodata._ZN2bn11bgs_manager18set_rotation_angleEPvNS_7fixed_tILi12EEE.str1.4
                0x0000000000000000       0x76 bn_bgs_manager.o
 .text._ZN2bn11bgs_manager18set_rotation_angleEPvNS_7fixed_tILi12EEE
                0x0000000000000000      0x1bc bn_bgs_manager.o
 .text._ZN2bn13affine_bg_ptr18set_rotation_angleENS_7fixed_tILi12EEE
                0x0000000000000000       0x10 bn_bgs_manager.o
 .text._ZN3_bn6assert9show_argsIA27_cN2bn7fixed_tILi12EEEEEvPKcS7_S7_iRKT_RKT0_
                0x0000000000000000       0x58 bn_bgs_manager.o
 .text._ZN3_bn6assert9show_argsIA25_cN2bn7fixed_tILi12EEEEEvPKcS7_S7_iRKT_RKT0_
                0x0000000000000000       0x58 bn_bgs_manager.o
 .text._ZN3_bn6assert9show_argsIA31_ciEEvPKcS4_S4_iRKT_RKT0_
                0x0000000000000000       0x58 bn_bgs_manager.o
 .rodata._ZN2bn11bgs_manager9set_scaleEPvNS_7fixed_tILi12EEE.str1.4
                0x0000000000000000       0x44 bn_bgs_manager.o
 .text._ZN2bn11bgs_manager9set_scaleEPvNS_7fixed_tILi12EEE
                0x0000000000000000      0x1b8 bn_bgs_manager.o
 .text._ZN2bn13affine_bg_ptr9set_scaleENS_7fixed_tILi12EEE
                0x0000000000000000       0x10 bn_bgs_manager.o
 .rodata._ZN2bn11bgs_manager18set_vertical_scaleEPvNS_7fixed_tILi12EEE.str1.4
                0x0000000000000000       0x41 bn_bgs_manager.o
 .text._ZN2bn11bgs_manager18set_vertical_scaleEPvNS_7fixed_tILi12EEE
                0x0000000000000000      0x100 bn_bgs_manager.o
 .text._ZN2bn13affine_bg_ptr18set_vertical_scaleENS_7fixed_tILi12EEE
                0x0000000000000000       0x10 bn_bgs_manager.o
 .rodata._ZN2bn11bgs_manager20set_horizontal_scaleEPvNS_7fixed_tILi12EEE.str1.4
                0x0000000000000000       0x4b bn_bgs_manager.o
 .text._ZN2bn11bgs_manager20set_horizontal_scaleEPvNS_7fixed_tILi12EEE
                0x0000000000000000      0x100 bn_bgs_manager.o
 .text._ZN2bn13affine_bg_ptr20set_horizontal_scaleENS_7fixed_tILi12EEE
                0x0000000000000000       0x10 bn_bgs_manager.o
 .text._ZN2bn11bgs_manager9set_scaleEPvNS_7fixed_tILi12EEES3_
                0x0000000000000000      0x210 bn_bgs_manager.o
 .text._ZN2bn13affine_bg_ptr9set_scaleENS_7fixed_tILi12EEES2_
                0x0000000000000000       0x10 bn_bgs_manager.o
 .text._ZN3_bn6assert9show_argsIA22_cEEvPKcS4_S4_iRKT_
                0x0000000000000000       0x50 bn_bgs_manager.o
 .text._ZN2bn18regular_bg_builder11release_mapEv
                0x0000000000000000       0x78 bn_bgs_manager.o
 .rodata._ZN2bn11bgs_manager12_GLOBAL__N_19item_type17update_affine_mapEb.str1.4
                0x0000000000000000       0x28 bn_bgs_manager.o
 .text._ZN2bn11bgs_manager12_GLOBAL__N_19item_type17update_affine_mapEb
                0x0000000000000000      0x25c bn_bgs_manager.o
 .rodata._ZN2bn11bgs_manager14set_affine_mapEPvRKNS_17affine_bg_map_ptrE.str1.4
                0x0000000000000000       0x61 bn_bgs_manager.o
 .text._ZN2bn11bgs_manager14set_affine_mapEPvRKNS_17affine_bg_map_ptrE
                0x0000000000000000       0xac bn_bgs_manager.o
 .text._ZN2bn13affine_bg_ptr7set_mapERKNS_17affine_bg_map_ptrE
                0x0000000000000000       0x10 bn_bgs_manager.o
 .text._ZN2bn11bgs_manager14set_affine_mapEPvONS_17affine_bg_map_ptrE
                0x0000000000000000       0xac bn_bgs_manager.o
 .text._ZN2bn13affine_bg_ptr7set_mapEONS_17affine_bg_map_ptrE
                0x0000000000000000       0x10 bn_bgs_manager.o
 .text._ZN2bn11bgs_manager12_GLOBAL__N_19item_typeC2EONS_17affine_bg_builderEONS_17affine_bg_map_ptrE.isra.0
                0x0000000000000000      0x208 bn_bgs_manager.o
 .text._ZN2bn11bgs_manager12_GLOBAL__N_19item_type18update_regular_mapEv
                0x0000000000000000      0x238 bn_bgs_manager.o
 .rodata._ZN2bn11bgs_manager15set_regular_mapEPvRKNS_18regular_bg_map_ptrE.str1.4
                0x0000000000000000       0x66 bn_bgs_manager.o
 .text._ZN2bn11bgs_manager15set_regular_mapEPvRKNS_18regular_bg_map_ptrE
                0x0000000000000000       0xb4 bn_bgs_manager.o
 .text._ZN2bn14regular_bg_ptr7set_mapERKNS_18regular_bg_map_ptrE
                0x0000000000000000       0x10 bn_bgs_manager.o
 .text._ZN2bn11bgs_manager15set_regular_mapEPvONS_18regular_bg_map_ptrE
                0x0000000000000000       0xb4 bn_bgs_manager.o
 .text._ZN2bn14regular_bg_ptr7set_mapEONS_18regular_bg_map_ptrE
                0x0000000000000000       0x10 bn_bgs_manager.o
 .text._ZN2bn17affine_bg_builder11release_mapEv
                0x0000000000000000       0x7c bn_bgs_manager.o
 .text._ZNK2bn13affine_bg_ptr3mapEv
                0x0000000000000000       0x38 bn_bgs_manager.o
 .text._ZNK2bn14regular_bg_ptr3mapEv
                0x0000000000000000       0x38 bn_bgs_manager.o
 .text._ZNK2bn13affine_bg_ptr5tilesEv
                0x0000000000000000       0x3c bn_bgs_manager.o
 .text._ZNK2bn14regular_bg_ptr7paletteEv
                0x0000000000000000       0x3c bn_bgs_manager.o
 .text._ZNK2bn14regular_bg_ptr5tilesEv
                0x0000000000000000       0x3c bn_bgs_manager.o
 .text._ZNK2bn13affine_bg_ptr7paletteEv
                0x0000000000000000       0x3c bn_bgs_manager.o
 .text._ZN2bn13affine_bg_ptr11set_paletteEONS_14bg_palette_ptrE
                0x0000000000000000       0x50 bn_bgs_manager.o
 .text._ZN2bn13affine_bg_ptr11set_paletteERKNS_15bg_palette_itemE
                0x0000000000000000       0x50 bn_bgs_manager.o
 .text._ZN2bn13affine_bg_ptr11set_paletteERKNS_14bg_palette_ptrE
                0x0000000000000000       0x50 bn_bgs_manager.o
 .text._ZN2bn14regular_bg_ptr9set_tilesERKNS_20regular_bg_tiles_ptrE
                0x0000000000000000       0x50 bn_bgs_manager.o
 .text._ZN2bn14regular_bg_ptr9set_tilesEONS_20regular_bg_tiles_ptrE
                0x0000000000000000       0x50 bn_bgs_manager.o
 .text._ZN2bn14regular_bg_ptr11set_paletteERKNS_14bg_palette_ptrE
                0x0000000000000000       0x50 bn_bgs_manager.o
 .text._ZN2bn14regular_bg_ptr11set_paletteEONS_14bg_palette_ptrE
                0x0000000000000000       0x50 bn_bgs_manager.o
 .text._ZN2bn14regular_bg_ptr11set_paletteERKNS_15bg_palette_itemE
                0x0000000000000000       0x50 bn_bgs_manager.o
 .text._ZN2bn14regular_bg_ptr9set_tilesERKNS_21regular_bg_tiles_itemE
                0x0000000000000000       0x50 bn_bgs_manager.o
 .text._ZN2bn13affine_bg_ptr9set_tilesERKNS_19affine_bg_tiles_ptrE
                0x0000000000000000       0x50 bn_bgs_manager.o
 .text._ZN2bn13affine_bg_ptr9set_tilesEONS_19affine_bg_tiles_ptrE
                0x0000000000000000       0x50 bn_bgs_manager.o
 .text._ZN2bn13affine_bg_ptr9set_tilesERKNS_20affine_bg_tiles_itemE
                0x0000000000000000       0x50 bn_bgs_manager.o
 .text._ZN2bn14regular_bg_ptr21set_tiles_and_paletteERKNS_21regular_bg_tiles_itemERKNS_15bg_palette_itemE
                0x0000000000000000       0x54 bn_bgs_manager.o
 .text._ZNK2bn14regular_bg_ptr10attributesEv
                0x0000000000000000       0x80 bn_bgs_manager.o
 .text._ZN2bn11bgs_manager18regular_attributesEPv
                0x0000000000000000       0x7c bn_bgs_manager.o
 .text._ZNK2bn13affine_bg_ptr10attributesEv
                0x0000000000000000       0x88 bn_bgs_manager.o
 .text._ZN2bn11bgs_manager17affine_attributesEPv
                0x0000000000000000       0x84 bn_bgs_manager.o
 .text._ZN2bn14regular_bg_ptr21set_tiles_and_paletteENS_20regular_bg_tiles_ptrENS_14bg_palette_ptrE
                0x0000000000000000       0x74 bn_bgs_manager.o
 .text._ZN2bn14regular_bg_ptr8set_itemERKNS_15regular_bg_itemE
                0x0000000000000000       0xcc bn_bgs_manager.o
 .text._ZN2bn13affine_bg_ptr8set_itemERKNS_14affine_bg_itemE
                0x0000000000000000       0xd0 bn_bgs_manager.o
 .text._ZNK2bn17affine_bg_builder3mapEv
                0x0000000000000000       0x54 bn_bgs_manager.o
 .text._ZNK2bn18regular_bg_builder3mapEv
                0x0000000000000000       0x4c bn_bgs_manager.o
 .text._ZN2bn13affine_bg_ptr7set_mapERKNS_18affine_bg_map_itemE
                0x0000000000000000      0x104 bn_bgs_manager.o
 .text._ZN2bn14regular_bg_ptr7set_mapERKNS_19regular_bg_map_itemE
                0x0000000000000000      0x104 bn_bgs_manager.o
 .text._ZN3_bn6assert9show_argsIA17_cEEvPKcS4_S4_iRKT_
                0x0000000000000000       0x50 bn_bgs_manager.o
 .text._ZN3_bn6assert9show_argsIA15_cEEvPKcS4_S4_iRKT_
                0x0000000000000000       0x50 bn_bgs_manager.o
 .rodata._ZN2bn11bgs_manager12_GLOBAL__N_112_insert_itemERNS1_9item_typeE.str1.4
                0x0000000000000000       0x7a bn_bgs_manager.o
 .text._ZN2bn11bgs_manager12_GLOBAL__N_112_insert_itemERNS1_9item_typeE
                0x0000000000000000      0x100 bn_bgs_manager.o
 .rodata._ZN2bn11bgs_manager15create_optionalEONS_18regular_bg_builderE.str1.4
                0x0000000000000000       0x6c bn_bgs_manager.o
 .text._ZN2bn11bgs_manager15create_optionalEONS_18regular_bg_builderE
                0x0000000000000000      0x1f4 bn_bgs_manager.o
 .rodata._ZN2bn11bgs_manager6createEONS_17affine_bg_builderE.str1.4
                0x0000000000000000       0x5b bn_bgs_manager.o
 .text._ZN2bn11bgs_manager6createEONS_17affine_bg_builderE
                0x0000000000000000       0xd4 bn_bgs_manager.o
 .text._ZN2bn13affine_bg_ptr6createENS_7fixed_tILi12EEES2_RKNS_14affine_bg_itemE
                0x0000000000000000       0xb0 bn_bgs_manager.o
 .text._ZN2bn13affine_bg_ptr6createERKNS_11fixed_pointERKNS_14affine_bg_itemE
                0x0000000000000000       0xa8 bn_bgs_manager.o
 .text._ZN2bn13affine_bg_ptr6createENS_7fixed_tILi12EEES2_NS_17affine_bg_map_ptrE
                0x0000000000000000       0xa0 bn_bgs_manager.o
 .text._ZN2bn13affine_bg_ptr6createERKNS_11fixed_pointENS_17affine_bg_map_ptrE
                0x0000000000000000       0xa4 bn_bgs_manager.o
 .text._ZN2bn13affine_bg_ptr6createERKNS_17affine_bg_builderE
                0x0000000000000000       0xb8 bn_bgs_manager.o
 .text._ZNK2bn17affine_bg_builder5buildEv
                0x0000000000000000       0x10 bn_bgs_manager.o
 .text._ZN2bn13affine_bg_ptr6createEONS_17affine_bg_builderE
                0x0000000000000000       0x14 bn_bgs_manager.o
 .text._ZN2bn17affine_bg_builder13release_buildEv
                0x0000000000000000       0x14 bn_bgs_manager.o
 .text._ZNK2bn14affine_bg_item9create_bgENS_7fixed_tILi12EEES2_
                0x0000000000000000       0xb0 bn_bgs_manager.o
 .text._ZNK2bn14affine_bg_item9create_bgERKNS_11fixed_pointE
                0x0000000000000000       0xa8 bn_bgs_manager.o
 .text._ZN2bn11bgs_manager15create_optionalEONS_17affine_bg_builderE
                0x0000000000000000       0xcc bn_bgs_manager.o
 .text._ZN2bn11bgs_manager6createEONS_18regular_bg_builderE
                0x0000000000000000      0x1f4 bn_bgs_manager.o
 .text._ZN2bn14regular_bg_ptr6createENS_7fixed_tILi12EEES2_RKNS_15regular_bg_itemE
                0x0000000000000000       0x74 bn_bgs_manager.o
 .text._ZN2bn14regular_bg_ptr6createERKNS_11fixed_pointERKNS_15regular_bg_itemE
                0x0000000000000000       0x74 bn_bgs_manager.o
 .text._ZNK2bn15regular_bg_item9create_bgERKNS_11fixed_pointE
                0x0000000000000000       0x18 bn_bgs_manager.o
 .text._ZN2bn14regular_bg_ptr6createENS_7fixed_tILi12EEES2_NS_18regular_bg_map_ptrE
                0x0000000000000000       0x70 bn_bgs_manager.o
 .text._ZN2bn14regular_bg_ptr6createERKNS_11fixed_pointENS_18regular_bg_map_ptrE
                0x0000000000000000       0x74 bn_bgs_manager.o
 .text._ZN2bn14regular_bg_ptr6createERKNS_18regular_bg_builderE
                0x0000000000000000       0xa0 bn_bgs_manager.o
 .text._ZNK2bn18regular_bg_builder5buildEv
                0x0000000000000000       0x10 bn_bgs_manager.o
 .text._ZN2bn14regular_bg_ptr6createEONS_18regular_bg_builderE
                0x0000000000000000       0x14 bn_bgs_manager.o
 .text._ZN2bn18regular_bg_builder13release_buildEv
                0x0000000000000000       0x14 bn_bgs_manager.o
 .text._ZNK2bn15regular_bg_item9create_bgENS_7fixed_tILi12EEES2_
                0x0000000000000000       0x74 bn_bgs_manager.o
 .text._ZN3_bn6assert9show_argsIA14_cEEvPKcS4_S4_iRKT_
                0x0000000000000000       0x50 bn_bgs_manager.o
 .text._ZN3_bn6assert9show_argsIJA23_ciA4_ciEEEvPKcS5_S5_iDpRKT_
                0x0000000000000000       0x5c bn_bgs_manager.o
 .rodata._ZN2bn5eraseERNS_7ivectorIPNS_11bgs_manager12_GLOBAL__N_19item_typeEEERKS4_.constprop.0.isra.0.str1.4
                0x0000000000000000       0x6f bn_bgs_manager.o
 .text._ZN2bn5eraseERNS_7ivectorIPNS_11bgs_manager12_GLOBAL__N_19item_typeEEERKS4_.constprop.0.isra.0
                0x0000000000000000      0x150 bn_bgs_manager.o
 .rodata._ZN2bn11bgs_manager15decrease_usagesEPv.str1.4
                0x0000000000000000       0x39 bn_bgs_manager.o
 .text._ZN2bn11bgs_manager15decrease_usagesEPv
                0x0000000000000000       0xa8 bn_bgs_manager.o
 .text._ZN2bn13affine_bg_ptraSERKS0_
                0x0000000000000000       0x28 bn_bgs_manager.o
 .text._ZN2bn13affine_bg_ptrD2Ev
                0x0000000000000000       0x18 bn_bgs_manager.o
 .text._ZN2bn13affine_bg_ptr15create_optionalENS_7fixed_tILi12EEES2_RKNS_14affine_bg_itemE
                0x0000000000000000       0xe4 bn_bgs_manager.o
 .text._ZNK2bn14affine_bg_item18create_bg_optionalENS_7fixed_tILi12EEES2_
                0x0000000000000000       0x1c bn_bgs_manager.o
 .text._ZN2bn13affine_bg_ptr15create_optionalERKNS_11fixed_pointERKNS_14affine_bg_itemE
                0x0000000000000000       0xdc bn_bgs_manager.o
 .text._ZNK2bn14affine_bg_item18create_bg_optionalERKNS_11fixed_pointE
                0x0000000000000000       0x18 bn_bgs_manager.o
 .text._ZN2bn13affine_bg_ptr15create_optionalENS_7fixed_tILi12EEES2_NS_17affine_bg_map_ptrE
                0x0000000000000000       0xe0 bn_bgs_manager.o
 .text._ZN2bn13affine_bg_ptr15create_optionalERKNS_11fixed_pointENS_17affine_bg_map_ptrE
                0x0000000000000000       0xd0 bn_bgs_manager.o
 .text._ZN2bn13affine_bg_ptr15create_optionalERKNS_17affine_bg_builderE
                0x0000000000000000       0xdc bn_bgs_manager.o
 .text._ZNK2bn17affine_bg_builder14build_optionalEv
                0x0000000000000000       0x10 bn_bgs_manager.o
 .text._ZN2bn13affine_bg_ptr15create_optionalEONS_17affine_bg_builderE
                0x0000000000000000       0x3c bn_bgs_manager.o
 .text._ZN2bn14regular_bg_ptraSERKS0_
                0x0000000000000000       0x28 bn_bgs_manager.o
 .text._ZN2bn14regular_bg_ptrD2Ev
                0x0000000000000000       0x18 bn_bgs_manager.o
 .text._ZN2bn14regular_bg_ptr15create_optionalENS_7fixed_tILi12EEES2_RKNS_15regular_bg_itemE
                0x0000000000000000       0xb0 bn_bgs_manager.o
 .text._ZNK2bn15regular_bg_item18create_bg_optionalENS_7fixed_tILi12EEES2_
                0x0000000000000000       0x1c bn_bgs_manager.o
 .text._ZN2bn14regular_bg_ptr15create_optionalERKNS_11fixed_pointERKNS_15regular_bg_itemE
                0x0000000000000000       0xa0 bn_bgs_manager.o
 .text._ZNK2bn15regular_bg_item18create_bg_optionalERKNS_11fixed_pointE
                0x0000000000000000       0x18 bn_bgs_manager.o
 .text._ZN2bn14regular_bg_ptr15create_optionalENS_7fixed_tILi12EEES2_NS_18regular_bg_map_ptrE
                0x0000000000000000       0xa8 bn_bgs_manager.o
 .text._ZN2bn14regular_bg_ptr15create_optionalERKNS_11fixed_pointENS_18regular_bg_map_ptrE
                0x0000000000000000       0xa0 bn_bgs_manager.o
 .text._ZN2bn14regular_bg_ptr15create_optionalERKNS_18regular_bg_builderE
                0x0000000000000000       0xc8 bn_bgs_manager.o
 .text._ZNK2bn18regular_bg_builder14build_optionalEv
                0x0000000000000000       0x10 bn_bgs_manager.o
 .text._ZN2bn14regular_bg_ptr15create_optionalEONS_18regular_bg_builderE
                0x0000000000000000       0x3c bn_bgs_manager.o
 .text._ZN2bn18regular_bg_builder22release_build_optionalEv
                0x0000000000000000       0x3c bn_bgs_manager.o
 .text._ZN2bn17affine_bg_builder22release_build_optionalEv
                0x0000000000000000       0x3c bn_bgs_manager.o
 .text._ZN2bn11bgs_manager12set_priorityEPvi
                0x0000000000000000       0x68 bn_bgs_manager.o
 .text._ZN2bn11bgs_manager22set_regular_attributesEPvRKNS_21regular_bg_attributesE
                0x0000000000000000       0x64 bn_bgs_manager.o
 .text._ZN2bn11bgs_manager21set_affine_attributesEPvRKNS_20affine_bg_attributesE
                0x0000000000000000       0xb0 bn_bgs_manager.o
 .text._ZN2bn13affine_bg_ptr14set_attributesERKNS_20affine_bg_attributesE
                0x0000000000000000       0x10 bn_bgs_manager.o
 .text._ZN2bn14regular_bg_ptr14set_attributesERKNS_21regular_bg_attributesE
                0x0000000000000000       0x68 bn_bgs_manager.o
 .text._ZN2bn11bgs_manager11set_z_orderEPvi
                0x0000000000000000       0x70 bn_bgs_manager.o
 .text._ZN2bn14regular_bg_ptr11set_z_orderEi
                0x0000000000000000       0x70 bn_bgs_manager.o
 .text._ZN2bn13affine_bg_ptr11set_z_orderEi
                0x0000000000000000       0x70 bn_bgs_manager.o
 .text._ZN2bn13affine_bg_ptr12set_priorityEi
                0x0000000000000000       0x68 bn_bgs_manager.o
 .text._ZN2bn14regular_bg_ptr12set_priorityEi
                0x0000000000000000       0x68 bn_bgs_manager.o
 .group         0x0000000000000000        0xc bn_cameras_manager.o
 .text          0x0000000000000000        0x0 bn_cameras_manager.o
 .data          0x0000000000000000        0x0 bn_cameras_manager.o
 .bss           0x0000000000000000        0x0 bn_cameras_manager.o
 .text._ZN2bn7cameras16used_items_countEv
                0x0000000000000000       0x10 bn_cameras_manager.o
 .text._ZN2bn7cameras21available_items_countEv
                0x0000000000000000        0xc bn_cameras_manager.o
 .text._ZN2bn10camera_ptr15create_optionalENS_7fixed_tILi12EEES2_
                0x0000000000000000       0x38 bn_cameras_manager.o
 .text._ZN2bn10camera_ptr15create_optionalERKNS_11fixed_pointE
                0x0000000000000000       0x38 bn_cameras_manager.o
 .text._ZN2bn10camera_ptraSERKS0_
                0x0000000000000000       0x54 bn_cameras_manager.o
 .text._ZNK2bn10camera_ptr1xEv
                0x0000000000000000       0x14 bn_cameras_manager.o
 .text._ZN2bn10camera_ptr5set_xENS_7fixed_tILi12EEE
                0x0000000000000000       0x24 bn_cameras_manager.o
 .text._ZNK2bn10camera_ptr1yEv
                0x0000000000000000       0x18 bn_cameras_manager.o
 .text._ZN2bn10camera_ptr5set_yENS_7fixed_tILi12EEE
                0x0000000000000000       0x24 bn_cameras_manager.o
 .text._ZN2bn10camera_ptr12set_positionENS_7fixed_tILi12EEES2_
                0x0000000000000000       0x38 bn_cameras_manager.o
 .text._ZN2bn15cameras_manager16used_items_countEv
                0x0000000000000000       0x10 bn_cameras_manager.o
 .text._ZN2bn15cameras_manager21available_items_countEv
                0x0000000000000000        0xc bn_cameras_manager.o
 .text._ZN2bn15cameras_manager15create_optionalERKNS_11fixed_pointE
                0x0000000000000000       0x38 bn_cameras_manager.o
 .text._ZN2bn15cameras_manager15increase_usagesEi
                0x0000000000000000       0x18 bn_cameras_manager.o
 .text._ZN2bn15cameras_manager15decrease_usagesEi
                0x0000000000000000       0x28 bn_cameras_manager.o
 .text._ZN2bn15cameras_manager8positionEi
                0x0000000000000000       0x10 bn_cameras_manager.o
 .text._ZN2bn15cameras_manager5set_xEiNS_7fixed_tILi12EEE
                0x0000000000000000       0x1c bn_cameras_manager.o
 .text._ZN2bn15cameras_manager5set_yEiNS_7fixed_tILi12EEE
                0x0000000000000000       0x20 bn_cameras_manager.o
 .text._ZN2bn15cameras_manager12set_positionEiRKNS_11fixed_pointE
                0x0000000000000000       0x38 bn_cameras_manager.o
 .text._ZN3_bn6assert9show_argsIA26_cEEvPKcS4_S4_iRKT_
                0x0000000000000000       0x50 bn_cameras_manager.o
 .text._ZN2bn15cameras_manager6createERKNS_11fixed_pointE
                0x0000000000000000       0x58 bn_cameras_manager.o
 .text._ZN2bn10camera_ptr6createERKNS_11fixed_pointE
                0x0000000000000000       0x58 bn_cameras_manager.o
 .group         0x0000000000000000        0xc bn_color_effect.o
 .group         0x0000000000000000        0xc bn_color_effect.o
 .group         0x0000000000000000        0xc bn_color_effect.o
 .group         0x0000000000000000        0xc bn_color_effect.o
 .group         0x0000000000000000        0xc bn_color_effect.o
 .group         0x0000000000000000        0xc bn_color_effect.o
 .group         0x0000000000000000        0xc bn_color_effect.o
 .group         0x0000000000000000        0xc bn_color_effect.o
 .group         0x0000000000000000        0xc bn_color_effect.o
 .group         0x0000000000000000        0xc bn_color_effect.o
 .text          0x0000000000000000        0x0 bn_color_effect.o
 .data          0x0000000000000000        0x0 bn_color_effect.o
 .bss           0x0000000000000000        0x0 bn_color_effect.o
 .text._ZN2bn2hw8palettes9grayscaleEPKNS_5colorEiiPS2_.part.0
                0x0000000000000000       0x40 bn_color_effect.o
 .text._ZN2bn12color_effect6invertENS_4spanINS_5colorEEE
                0x0000000000000000       0x5c bn_color_effect.o
 .text._ZN3_bn6assert9show_argsIJA35_ciA4_ciEEEvPKcS5_S5_iDpRKT_
                0x0000000000000000       0x6c bn_color_effect.o
 .rodata._ZN2bn12color_effect6invertERKNS_4spanIKNS_5colorEEENS1_IS2_EE.str1.4
                0x0000000000000000       0x73 bn_color_effect.o
 .text._ZN2bn12color_effect6invertERKNS_4spanIKNS_5colorEEENS1_IS2_EE
                0x0000000000000000       0xa4 bn_color_effect.o
 .text._ZN3_bn6assert9show_argsIA23_ciEEvPKcS4_S4_iRKT_RKT0_
                0x0000000000000000       0x58 bn_color_effect.o
 .text._ZN3_bn6assert9show_argsIA30_ciEEvPKcS4_S4_iRKT_RKT0_
                0x0000000000000000       0x58 bn_color_effect.o
 .text._ZN3_bn6assert9show_argsIJA23_ciA4_ciEEEvPKcS5_S5_iDpRKT_
                0x0000000000000000       0x6c bn_color_effect.o
 .rodata._ZN2bn12color_effect6rotateEiNS_4spanINS_5colorEEE.str1.4
                0x0000000000000000       0x83 bn_color_effect.o
 .text._ZN2bn12color_effect6rotateEiNS_4spanINS_5colorEEE
                0x0000000000000000       0xb0 bn_color_effect.o
 .text._ZN2bn12color_effect6rotateERKNS_4spanIKNS_5colorEEEiNS1_IS2_EE
                0x0000000000000000       0x8c bn_color_effect.o
 .text._ZN2bn13ostringstream6appendILi12EEEvNS_7fixed_tIXT_EEE
                0x0000000000000000       0xa0 bn_color_effect.o
 .text._ZN3_bn6assert9show_argsIA21_cN2bn7fixed_tILi12EEEEEvPKcS7_S7_iRKT_RKT0_
                0x0000000000000000       0x58 bn_color_effect.o
 .rodata._ZN2bn12color_effect10brightnessENS_7fixed_tILi12EEENS_4spanINS_5colorEEE.str1.4
                0x0000000000000000       0x45 bn_color_effect.o
 .text._ZN2bn12color_effect10brightnessENS_7fixed_tILi12EEENS_4spanINS_5colorEEE
                0x0000000000000000       0x50 bn_color_effect.o
 .text._ZN2bn12color_effect10brightnessERKNS_4spanIKNS_5colorEEENS_7fixed_tILi12EEENS1_IS2_EE
                0x0000000000000000       0x84 bn_color_effect.o
 .text._ZN3_bn6assert9show_argsIA19_cN2bn7fixed_tILi12EEEEEvPKcS7_S7_iRKT_RKT0_
                0x0000000000000000       0x58 bn_color_effect.o
 .rodata._ZN2bn12color_effect8contrastENS_7fixed_tILi12EEENS_4spanINS_5colorEEE.str1.4
                0x0000000000000000       0x3f bn_color_effect.o
 .text._ZN2bn12color_effect8contrastENS_7fixed_tILi12EEENS_4spanINS_5colorEEE
                0x0000000000000000       0x50 bn_color_effect.o
 .text._ZN2bn12color_effect8contrastERKNS_4spanIKNS_5colorEEENS_7fixed_tILi12EEENS1_IS2_EE
                0x0000000000000000       0x84 bn_color_effect.o
 .text._ZN3_bn6assert9show_argsIA20_cN2bn7fixed_tILi12EEEEEvPKcS7_S7_iRKT_RKT0_
                0x0000000000000000       0x58 bn_color_effect.o
 .rodata._ZN2bn12color_effect9intensityENS_7fixed_tILi12EEENS_4spanINS_5colorEEE.str1.4
                0x0000000000000000       0x44 bn_color_effect.o
 .text._ZN2bn12color_effect9intensityENS_7fixed_tILi12EEENS_4spanINS_5colorEEE
                0x0000000000000000       0x50 bn_color_effect.o
 .text._ZN2bn12color_effect9intensityERKNS_4spanIKNS_5colorEEENS_7fixed_tILi12EEENS1_IS2_EE
                0x0000000000000000       0x84 bn_color_effect.o
 .text._ZN3_bn6assert9show_argsIA30_cN2bn7fixed_tILi12EEEEEvPKcS7_S7_iRKT_RKT0_
                0x0000000000000000       0x58 bn_color_effect.o
 .rodata._ZN2bn12color_effect9grayscaleENS_7fixed_tILi12EEENS_4spanINS_5colorEEE.str1.4
                0x0000000000000000       0x62 bn_color_effect.o
 .text._ZN2bn12color_effect9grayscaleENS_7fixed_tILi12EEENS_4spanINS_5colorEEE
                0x0000000000000000       0x84 bn_color_effect.o
 .rodata._ZN2bn12color_effect9hue_shiftENS_7fixed_tILi12EEENS_4spanINS_5colorEEE.str1.4
                0x0000000000000000       0x62 bn_color_effect.o
 .text._ZN2bn12color_effect9hue_shiftENS_7fixed_tILi12EEENS_4spanINS_5colorEEE
                0x0000000000000000       0x50 bn_color_effect.o
 .rodata._ZN2bn12color_effect9grayscaleERKNS_4spanIKNS_5colorEEENS_7fixed_tILi12EEENS1_IS2_EE.str1.4
                0x0000000000000000       0x1e bn_color_effect.o
 .text._ZN2bn12color_effect9grayscaleERKNS_4spanIKNS_5colorEEENS_7fixed_tILi12EEENS1_IS2_EE
                0x0000000000000000       0xb4 bn_color_effect.o
 .text._ZN2bn12color_effect9hue_shiftERKNS_4spanIKNS_5colorEEENS_7fixed_tILi12EEENS1_IS2_EE
                0x0000000000000000       0x84 bn_color_effect.o
 .text._ZN3_bn6assert9show_argsIA25_cN2bn7fixed_tILi12EEEEEvPKcS7_S7_iRKT_RKT0_
                0x0000000000000000       0x58 bn_color_effect.o
 .rodata._ZN2bn12color_effect4fadeENS_5colorENS_7fixed_tILi12EEENS_4spanIS1_EE.str1.4
                0x0000000000000000       0x4d bn_color_effect.o
 .text._ZN2bn12color_effect4fadeENS_5colorENS_7fixed_tILi12EEENS_4spanIS1_EE
                0x0000000000000000       0x74 bn_color_effect.o
 .text._ZN2bn12color_effect4fadeERKNS_4spanIKNS_5colorEEES2_NS_7fixed_tILi12EEENS1_IS2_EE
                0x0000000000000000       0xa8 bn_color_effect.o
 .debug_info    0x0000000000000000     0xa09f bn_color_effect.o
 .debug_abbrev  0x0000000000000000      0xb1f bn_color_effect.o
 .debug_loc     0x0000000000000000     0x3430 bn_color_effect.o
 .debug_aranges
                0x0000000000000000       0xf0 bn_color_effect.o
 .debug_ranges  0x0000000000000000      0x748 bn_color_effect.o
 .debug_line    0x0000000000000000     0x1fe4 bn_color_effect.o
 .debug_str     0x0000000000000000     0x4e61 bn_color_effect.o
 .comment       0x0000000000000000       0x24 bn_color_effect.o
 .debug_frame   0x0000000000000000      0x37c bn_color_effect.o
 .group         0x0000000000000000        0x8 bn_core.o
 .group         0x0000000000000000        0xc bn_core.o
 .group         0x0000000000000000        0xc bn_core.o
 .text          0x0000000000000000        0x0 bn_core.o
 .data          0x0000000000000000        0x0 bn_core.o
 .bss           0x0000000000000000        0x0 bn_core.o
 .text._ZN2bn4core11skip_framesEv
                0x0000000000000000        0xc bn_core.o
 .text._ZN2bn4core5resetEv
                0x0000000000000000       0x10 bn_core.o
 .text._ZN2bn4core17current_cpu_usageEv
                0x0000000000000000       0x20 bn_core.o
 .text._ZN2bn4core14last_cpu_usageEv
                0x0000000000000000       0x24 bn_core.o
 .text._ZN2bn4core17last_vblank_usageEv
                0x0000000000000000       0x20 bn_core.o
 .text._ZN2bn4core15vblank_callbackEv
                0x0000000000000000        0xc bn_core.o
 .text._ZN2bn4core19set_vblank_callbackEPFvvE
                0x0000000000000000        0xc bn_core.o
 .text._ZN2bn4core13slow_game_pakEv
                0x0000000000000000        0xc bn_core.o
 .text._ZN2bn4core11system_fontEv
                0x0000000000000000        0x8 bn_core.o
 .text._ZN2bn4core15set_system_fontERKNS_11system_fontE
                0x0000000000000000       0x18 bn_core.o
 .text._ZN2bn4core10assert_tagEv
                0x0000000000000000        0x8 bn_core.o
 .text._ZN2bn4core14set_assert_tagERKNS_11string_viewE
                0x0000000000000000        0xc bn_core.o
 .text._ZN2bn9core_lockC2Ev
                0x0000000000000000       0x24 bn_core.o
 .text._ZN2bn9core_lockD2Ev
                0x0000000000000000       0x38 bn_core.o
 .text._ZN3_bn6assert4showEPKcS2_S2_iS2_
                0x0000000000000000       0x54 bn_core.o
 .rodata._ZN3_bn6assert4showEPKcS2_i.str1.4
                0x0000000000000000        0x1 bn_core.o
 .text._ZN3_bn6assert4showEPKcS2_i
                0x0000000000000000       0x18 bn_core.o
 .text._ZN3_bn6assert4showEPKcS2_S2_i
                0x0000000000000000       0x10 bn_core.o
 .text._ZN3_bn6assert9show_argsIA22_ciEEvPKcS4_S4_iRKT_RKT0_
                0x0000000000000000       0x58 bn_core.o
 .rodata._ZN2bn4core15set_skip_framesEi.str1.4
                0x0000000000000000       0x46 bn_core.o
 .text._ZN2bn4core15set_skip_framesEi
                0x0000000000000000       0x40 bn_core.o
 .text._ZN3_bn6assert9show_argsIA24_cEEvPKcS4_S4_iRKT_
                0x0000000000000000       0x50 bn_core.o
 .rodata._ZN2bn4core5sleepERKNS_4spanIKNS_6keypad8key_typeEEE.str1.4
                0x0000000000000000       0x38 bn_core.o
 .text._ZN2bn4core5sleepERKNS_4spanIKNS_6keypad8key_typeEEE
                0x0000000000000000       0xb4 bn_core.o
 .text._ZN2bn4core5sleepENS_6keypad8key_typeE
                0x0000000000000000       0x1c bn_core.o
 .group         0x0000000000000000        0xc bn_display_manager.o
 .group         0x0000000000000000        0xc bn_display_manager.o
 .group         0x0000000000000000        0xc bn_display_manager.o
 .group         0x0000000000000000        0xc bn_display_manager.o
 .group         0x0000000000000000        0xc bn_display_manager.o
 .group         0x0000000000000000        0xc bn_display_manager.o
 .group         0x0000000000000000        0xc bn_display_manager.o
 .group         0x0000000000000000        0xc bn_display_manager.o
 .group         0x0000000000000000        0xc bn_display_manager.o
 .group         0x0000000000000000        0xc bn_display_manager.o
 .group         0x0000000000000000        0xc bn_display_manager.o
 .group         0x0000000000000000        0xc bn_display_manager.o
 .group         0x0000000000000000        0xc bn_display_manager.o
 .group         0x0000000000000000        0xc bn_display_manager.o
 .group         0x0000000000000000        0xc bn_display_manager.o
 .group         0x0000000000000000        0xc bn_display_manager.o
 .group         0x0000000000000000        0xc bn_display_manager.o
 .text          0x0000000000000000        0x0 bn_display_manager.o
 .data          0x0000000000000000        0x0 bn_display_manager.o
 .bss           0x0000000000000000        0x0 bn_display_manager.o
 .text._ZNK2bn6window7show_bgERKNS_14regular_bg_ptrE
                0x0000000000000000       0x14 bn_display_manager.o
 .text._ZNK2bn6window7show_bgERKNS_13affine_bg_ptrE
                0x0000000000000000       0x14 bn_display_manager.o
 .text._ZN2bn6window11set_show_bgERKNS_14regular_bg_ptrEb
                0x0000000000000000       0x14 bn_display_manager.o
 .text._ZN2bn6window11set_show_bgERKNS_13affine_bg_ptrEb
                0x0000000000000000       0x14 bn_display_manager.o
 .text._ZNK2bn6window12show_spritesEv
                0x0000000000000000       0x18 bn_display_manager.o
 .text._ZN2bn6window16set_show_spritesEb
                0x0000000000000000       0x34 bn_display_manager.o
 .text._ZNK2bn6window13show_blendingEv
                0x0000000000000000       0x18 bn_display_manager.o
 .text._ZN2bn6window17set_show_blendingEb
                0x0000000000000000       0x34 bn_display_manager.o
 .text._ZNK2bn6window8show_allEv
                0x0000000000000000       0x1c bn_display_manager.o
 .text._ZN2bn6window12set_show_allEv
                0x0000000000000000       0x34 bn_display_manager.o
 .text._ZNK2bn6window12show_nothingEv
                0x0000000000000000       0x1c bn_display_manager.o
 .text._ZN2bn6window16set_show_nothingEv
                0x0000000000000000       0x34 bn_display_manager.o
 .text._ZN2bn8blending18transparency_alphaEv
                0x0000000000000000       0x18 bn_display_manager.o
 .text._ZN2bn8blending15intensity_alphaEv
                0x0000000000000000       0x18 bn_display_manager.o
 .text._ZN2bn8blending23transparency_top_weightEv
                0x0000000000000000       0x18 bn_display_manager.o
 .text._ZN2bn8blending26transparency_bottom_weightEv
                0x0000000000000000       0x28 bn_display_manager.o
 .text._ZN2bn8blending10fade_colorEv
                0x0000000000000000       0x10 bn_display_manager.o
 .text._ZN2bn8blending14set_fade_colorENS0_15fade_color_typeE
                0x0000000000000000       0x1c bn_display_manager.o
 .text._ZN2bn8blending10fade_alphaEv
                0x0000000000000000        0xc bn_display_manager.o
 .text._ZN2bn10bgs_mosaic18horizontal_stretchEv
                0x0000000000000000        0xc bn_display_manager.o
 .text._ZN2bn10bgs_mosaic16vertical_stretchEv
                0x0000000000000000        0xc bn_display_manager.o
 .text._ZN2bn10green_swap7enabledEv
                0x0000000000000000        0xc bn_display_manager.o
 .text._ZN2bn10green_swap11set_enabledEb
                0x0000000000000000       0x18 bn_display_manager.o
 .text._ZNK2bn11rect_window3topEv
                0x0000000000000000       0x14 bn_display_manager.o
 .text._ZNK2bn11rect_window4leftEv
                0x0000000000000000       0x14 bn_display_manager.o
 .text._ZNK2bn11rect_window8top_leftEv
                0x0000000000000000       0x14 bn_display_manager.o
 .text._ZNK2bn11rect_window6bottomEv
                0x0000000000000000       0x14 bn_display_manager.o
 .text._ZNK2bn11rect_window5rightEv
                0x0000000000000000       0x14 bn_display_manager.o
 .text._ZNK2bn11rect_window12bottom_rightEv
                0x0000000000000000       0x14 bn_display_manager.o
 .text._ZNK2bn11rect_window6cameraEv
                0x0000000000000000       0x14 bn_display_manager.o
 .text._ZN2bn11rect_window10set_cameraEONS_10camera_ptrE
                0x0000000000000000       0x54 bn_display_manager.o
 .text._ZN2bn11rect_window13remove_cameraEv
                0x0000000000000000       0x40 bn_display_manager.o
 .text._ZNK2bn13inside_window7visibleEv
                0x0000000000000000       0x10 bn_display_manager.o
 .text._ZN2bn13inside_window11set_visibleEb
                0x0000000000000000       0x24 bn_display_manager.o
 .text._ZN2bn14sprites_mosaic18horizontal_stretchEv
                0x0000000000000000        0xc bn_display_manager.o
 .text._ZN2bn14sprites_mosaic16vertical_stretchEv
                0x0000000000000000        0xc bn_display_manager.o
 .text._ZN2bn15display_manager10bg_enabledEi
                0x0000000000000000        0xc bn_display_manager.o
 .text._ZN2bn15display_manager33sprites_mosaic_horizontal_stretchEv
                0x0000000000000000        0xc bn_display_manager.o
 .text._ZN2bn15display_manager37set_sprites_mosaic_horizontal_stretchENS_7fixed_tILi12EEE
                0x0000000000000000       0x14 bn_display_manager.o
 .text._ZN2bn15display_manager31sprites_mosaic_vertical_stretchEv
                0x0000000000000000        0xc bn_display_manager.o
 .text._ZN2bn15display_manager35set_sprites_mosaic_vertical_stretchENS_7fixed_tILi12EEE
                0x0000000000000000       0x14 bn_display_manager.o
 .text._ZN2bn15display_manager26set_sprites_mosaic_stretchENS_7fixed_tILi12EEE
                0x0000000000000000       0x18 bn_display_manager.o
 .text._ZN2bn15display_manager26set_sprites_mosaic_stretchENS_7fixed_tILi12EEES2_
                0x0000000000000000       0x18 bn_display_manager.o
 .text._ZN2bn15display_manager29bgs_mosaic_horizontal_stretchEv
                0x0000000000000000        0xc bn_display_manager.o
 .text._ZN2bn15display_manager33set_bgs_mosaic_horizontal_stretchENS_7fixed_tILi12EEE
                0x0000000000000000       0x14 bn_display_manager.o
 .text._ZN2bn15display_manager27bgs_mosaic_vertical_stretchEv
                0x0000000000000000        0xc bn_display_manager.o
 .text._ZN2bn15display_manager31set_bgs_mosaic_vertical_stretchENS_7fixed_tILi12EEE
                0x0000000000000000       0x14 bn_display_manager.o
 .text._ZN2bn15display_manager22set_bgs_mosaic_stretchENS_7fixed_tILi12EEE
                0x0000000000000000       0x18 bn_display_manager.o
 .text._ZN2bn15display_manager22set_bgs_mosaic_stretchENS_7fixed_tILi12EEES2_
                0x0000000000000000       0x18 bn_display_manager.o
 .text._ZN2bn15display_manager13reload_mosaicEv
                0x0000000000000000       0x14 bn_display_manager.o
 .text._ZN2bn15display_manager19blending_bg_enabledEi
                0x0000000000000000        0xc bn_display_manager.o
 .text._ZN2bn15display_manager27blending_transparency_alphaEv
                0x0000000000000000       0x18 bn_display_manager.o
 .text._ZN2bn15display_manager31set_blending_transparency_alphaENS_7fixed_tILi12EEE
                0x0000000000000000       0x20 bn_display_manager.o
 .text._ZN2bn15display_manager24blending_intensity_alphaEv
                0x0000000000000000       0x18 bn_display_manager.o
 .text._ZN2bn15display_manager28set_blending_intensity_alphaENS_7fixed_tILi12EEE
                0x0000000000000000       0x20 bn_display_manager.o
 .text._ZN2bn15display_manager36set_blending_transparency_top_weightENS_7fixed_tILi12EEE
                0x0000000000000000       0x14 bn_display_manager.o
 .text._ZN2bn15display_manager39set_blending_transparency_bottom_weightENS_7fixed_tILi12EEE
                0x0000000000000000       0x14 bn_display_manager.o
 .text._ZN2bn15display_manager33set_blending_transparency_weightsENS_7fixed_tILi12EEES2_
                0x0000000000000000       0x18 bn_display_manager.o
 .text._ZN2bn15display_manager28reload_blending_transparencyEv
                0x0000000000000000       0x14 bn_display_manager.o
 .text._ZN2bn15display_manager20blending_enable_fadeEv
                0x0000000000000000       0x28 bn_display_manager.o
 .text._ZN2bn15display_manager21blending_disable_fadeEv
                0x0000000000000000       0x28 bn_display_manager.o
 .text._ZN2bn15display_manager22blending_fade_to_blackEv
                0x0000000000000000        0xc bn_display_manager.o
 .text._ZN2bn15display_manager26set_blending_fade_to_blackEb
                0x0000000000000000       0x18 bn_display_manager.o
 .text._ZN2bn15display_manager19blending_fade_alphaEv
                0x0000000000000000        0xc bn_display_manager.o
 .text._ZN2bn15display_manager23set_blending_fade_alphaENS_7fixed_tILi12EEE
                0x0000000000000000       0x4c bn_display_manager.o
 .text._ZN2bn15display_manager20reload_blending_fadeEv
                0x0000000000000000       0x14 bn_display_manager.o
 .text._ZN2bn15display_manager22show_sprites_in_windowEi
                0x0000000000000000       0x14 bn_display_manager.o
 .text._ZN2bn15display_manager26set_show_sprites_in_windowEib
                0x0000000000000000       0x30 bn_display_manager.o
 .text._ZN2bn15display_manager23show_blending_in_windowEi
                0x0000000000000000       0x14 bn_display_manager.o
 .text._ZN2bn15display_manager27set_show_blending_in_windowEib
                0x0000000000000000       0x30 bn_display_manager.o
 .text._ZN2bn15display_manager18show_all_in_windowEi
                0x0000000000000000       0x18 bn_display_manager.o
 .text._ZN2bn15display_manager22set_show_all_in_windowEi
                0x0000000000000000       0x20 bn_display_manager.o
 .text._ZN2bn15display_manager22show_nothing_in_windowEi
                0x0000000000000000       0x18 bn_display_manager.o
 .text._ZN2bn15display_manager26set_show_nothing_in_windowEi
                0x0000000000000000       0x20 bn_display_manager.o
 .text._ZN2bn15display_manager20rect_window_top_leftEi
                0x0000000000000000        0xc bn_display_manager.o
 .text._ZN2bn15display_manager24rect_window_bottom_rightEi
                0x0000000000000000        0xc bn_display_manager.o
 .text._ZN2bn15display_manager24set_rect_window_top_leftEiRKNS_11fixed_pointE
                0x0000000000000000       0x44 bn_display_manager.o
 .text._ZN2bn15display_manager28set_rect_window_bottom_rightEiRKNS_11fixed_pointE
                0x0000000000000000       0x44 bn_display_manager.o
 .text._ZN2bn11rect_window14set_boundariesERKNS_10fixed_rectE
                0x0000000000000000       0x4c bn_display_manager.o
 .text._ZN2bn11rect_window18restore_boundariesEv
                0x0000000000000000       0x2c bn_display_manager.o
 .text._ZN2bn15display_manager18rect_window_cameraEi
                0x0000000000000000       0x10 bn_display_manager.o
 .text._ZN2bn15display_manager22set_rect_window_cameraEiONS_10camera_ptrE
                0x0000000000000000       0x50 bn_display_manager.o
 .text._ZN2bn11rect_window10set_cameraERKNS_10camera_ptrE
                0x0000000000000000       0x24 bn_display_manager.o
 .text._ZN2bn11rect_window10set_cameraERKNS_8optionalINS_10camera_ptrEEE
                0x0000000000000000       0x5c bn_display_manager.o
 .text._ZN2bn11rect_window10set_cameraEONS_8optionalINS_10camera_ptrEEE
                0x0000000000000000       0x4c bn_display_manager.o
 .text._ZN2bn15display_manager25remove_rect_window_cameraEi
                0x0000000000000000       0x3c bn_display_manager.o
 .text._ZN2bn15display_manager30reload_rect_windows_boundariesEv
                0x0000000000000000       0x14 bn_display_manager.o
 .text._ZN2bn15display_manager21inside_window_enabledEi
                0x0000000000000000        0xc bn_display_manager.o
 .text._ZN2bn15display_manager25set_inside_window_enabledEib
                0x0000000000000000       0x20 bn_display_manager.o
 .text._ZN2bn15display_manager18green_swap_enabledEv
                0x0000000000000000        0xc bn_display_manager.o
 .text._ZN2bn15display_manager22set_green_swap_enabledEb
                0x0000000000000000       0x18 bn_display_manager.o
 .text._ZN2bn15display_manager17reload_green_swapEv
                0x0000000000000000       0x14 bn_display_manager.o
 .text._ZN2bn15display_manager5sleepEv
                0x0000000000000000       0x10 bn_display_manager.o
 .text._ZN2bn15display_manager7wake_upEv
                0x0000000000000000       0x10 bn_display_manager.o
 .text._ZN2bn15display_manager13set_show_modeEv
                0x0000000000000000       0x20 bn_display_manager.o
 .rodata._ZN2bn8blending27set_transparency_attributesERKNS_32blending_transparency_attributesE.str1.4
                0x0000000000000000       0xca bn_display_manager.o
 .text._ZN2bn8blending27set_transparency_attributesERKNS_32blending_transparency_attributesE
                0x0000000000000000       0x5c bn_display_manager.o
 .rodata._ZN2bn8blending14set_fade_alphaENS_19blending_fade_alphaE.str1.4
                0x0000000000000000       0xb8 bn_display_manager.o
 .text._ZN2bn8blending14set_fade_alphaENS_19blending_fade_alphaE
                0x0000000000000000       0xa4 bn_display_manager.o
 .text._ZN3_bn6assert9show_argsIA63_cEEvPKcS4_S4_iRKT_
                0x0000000000000000       0x50 bn_display_manager.o
 .text._ZN2bn13ostringstream6appendILi12EEEvNS_7fixed_tIXT_EEE
                0x0000000000000000       0xa0 bn_display_manager.o
 .text._ZN3_bn6assert9show_argsIA29_cN2bn7fixed_tILi12EEEEEvPKcS7_S7_iRKT_RKT0_
                0x0000000000000000       0x58 bn_display_manager.o
 .rodata._ZN2bn8blending22set_transparency_alphaENS_7fixed_tILi12EEE.str1.4
                0x0000000000000000       0xb2 bn_display_manager.o
 .text._ZN2bn8blending22set_transparency_alphaENS_7fixed_tILi12EEE
                0x0000000000000000       0x7c bn_display_manager.o
 .rodata._ZN2bn10bgs_mosaic22set_horizontal_stretchENS_7fixed_tILi12EEE.str1.4
                0x0000000000000000       0x7d bn_display_manager.o
 .text._ZN2bn10bgs_mosaic22set_horizontal_stretchENS_7fixed_tILi12EEE
                0x0000000000000000       0x4c bn_display_manager.o
 .rodata._ZN2bn14sprites_mosaic22set_horizontal_stretchENS_7fixed_tILi12EEE.str1.4
                0x0000000000000000       0x18 bn_display_manager.o
 .text._ZN2bn14sprites_mosaic22set_horizontal_stretchENS_7fixed_tILi12EEE
                0x0000000000000000       0x4c bn_display_manager.o
 .text._ZN3_bn6assert9show_argsIA26_cN2bn7fixed_tILi12EEEEEvPKcS7_S7_iRKT_RKT0_
                0x0000000000000000       0x58 bn_display_manager.o
 .rodata._ZN2bn8blending19set_intensity_alphaENS_7fixed_tILi12EEE.str1.4
                0x0000000000000000       0xe3 bn_display_manager.o
 .text._ZN2bn8blending19set_intensity_alphaENS_7fixed_tILi12EEE
                0x0000000000000000       0x7c bn_display_manager.o
 .text._ZN3_bn6assert9show_argsIA34_cN2bn7fixed_tILi12EEEEEvPKcS7_S7_iRKT_RKT0_
                0x0000000000000000       0x58 bn_display_manager.o
 .rodata._ZN2bn8blending27set_transparency_top_weightENS_7fixed_tILi12EEE.str1.4
                0x0000000000000000       0xcb bn_display_manager.o
 .text._ZN2bn8blending27set_transparency_top_weightENS_7fixed_tILi12EEE
                0x0000000000000000       0x70 bn_display_manager.o
 .text._ZN3_bn6assert9show_argsIA37_cN2bn7fixed_tILi12EEEEEvPKcS7_S7_iRKT_RKT0_
                0x0000000000000000       0x58 bn_display_manager.o
 .rodata._ZN2bn8blending30set_transparency_bottom_weightENS_7fixed_tILi12EEE.str1.4
                0x0000000000000000       0xda bn_display_manager.o
 .text._ZN2bn8blending30set_transparency_bottom_weightENS_7fixed_tILi12EEE
                0x0000000000000000       0x74 bn_display_manager.o
 .rodata._ZN2bn8blending24set_transparency_weightsENS_7fixed_tILi12EEES2_.str1.4
                0x0000000000000000       0x8c bn_display_manager.o
 .text._ZN2bn8blending24set_transparency_weightsENS_7fixed_tILi12EEES2_
                0x0000000000000000       0xa0 bn_display_manager.o
 .rodata._ZN2bn8blending23transparency_attributesEv.str1.4
                0x0000000000000000       0x4a bn_display_manager.o
 .text._ZN2bn8blending23transparency_attributesEv
                0x0000000000000000       0x9c bn_display_manager.o
 .text._ZN3_bn6assert9show_argsIA21_cN2bn7fixed_tILi12EEEEEvPKcS7_S7_iRKT_RKT0_
                0x0000000000000000       0x58 bn_display_manager.o
 .rodata._ZN2bn8blending14set_fade_alphaENS_7fixed_tILi12EEE.str1.4
                0x0000000000000000       0x39 bn_display_manager.o
 .text._ZN2bn8blending14set_fade_alphaENS_7fixed_tILi12EEE
                0x0000000000000000       0x90 bn_display_manager.o
 .text._ZN3_bn6assert9show_argsIA27_cN2bn7fixed_tILi12EEEEEvPKcS7_S7_iRKT_RKT0_
                0x0000000000000000       0x58 bn_display_manager.o
 .rodata._ZN2bn10bgs_mosaic20set_vertical_stretchENS_7fixed_tILi12EEE.str1.4
                0x0000000000000000       0x63 bn_display_manager.o
 .text._ZN2bn10bgs_mosaic20set_vertical_stretchENS_7fixed_tILi12EEE
                0x0000000000000000       0x4c bn_display_manager.o
 .rodata._ZN2bn10bgs_mosaic11set_stretchENS_7fixed_tILi12EEES2_.str1.4
                0x0000000000000000        0xc bn_display_manager.o
 .text._ZN2bn10bgs_mosaic11set_stretchENS_7fixed_tILi12EEES2_
                0x0000000000000000       0x70 bn_display_manager.o
 .text._ZN2bn14sprites_mosaic20set_vertical_stretchENS_7fixed_tILi12EEE
                0x0000000000000000       0x4c bn_display_manager.o
 .text._ZN2bn14sprites_mosaic11set_stretchENS_7fixed_tILi12EEES2_
                0x0000000000000000       0x70 bn_display_manager.o
 .text._ZN3_bn6assert9show_argsIA18_cN2bn7fixed_tILi12EEEEEvPKcS7_S7_iRKT_RKT0_
                0x0000000000000000       0x58 bn_display_manager.o
 .rodata._ZN2bn10bgs_mosaic11set_stretchENS_7fixed_tILi12EEE.str1.4
                0x0000000000000000       0x32 bn_display_manager.o
 .text._ZN2bn10bgs_mosaic11set_stretchENS_7fixed_tILi12EEE
                0x0000000000000000       0x4c bn_display_manager.o
 .text._ZN2bn14sprites_mosaic11set_stretchENS_7fixed_tILi12EEE
                0x0000000000000000       0x4c bn_display_manager.o
 .text._ZN3_bn6assert9show_argsIA16_cN2bn7fixed_tILi12EEEEEvPKcS7_S7_iRKT_RKT0_
                0x0000000000000000       0x58 bn_display_manager.o
 .text._ZN3_bn6assert9show_argsIA17_cN2bn7fixed_tILi12EEEEEvPKcS7_S7_iRKT_RKT0_
                0x0000000000000000       0x58 bn_display_manager.o
 .rodata._ZNK2bn11rect_window10boundariesEv.str1.4
                0x0000000000000000       0x55 bn_display_manager.o
 .text._ZNK2bn11rect_window10boundariesEv
                0x0000000000000000       0x90 bn_display_manager.o
 .text._ZN2bn13ostringstream11append_argsINS_7fixed_tILi12EEEJA4_cS3_EEEvRKT_DpRKT0_.isra.0
                0x0000000000000000       0xb4 bn_display_manager.o
 .text._ZN3_bn6assert9show_argsIJA24_cN2bn7fixed_tILi12EEEA4_cS5_EEEvPKcS8_S8_iDpRKT_
                0x0000000000000000       0x5c bn_display_manager.o
 .rodata._ZN2bn11rect_window14set_boundariesERKNS_11fixed_pointES3_.str1.4
                0x0000000000000000       0xa4 bn_display_manager.o
 .text._ZN2bn11rect_window14set_boundariesERKNS_11fixed_pointES3_
                0x0000000000000000       0x8c bn_display_manager.o
 .text._ZN2bn11rect_window14set_boundariesENS_7fixed_tILi12EEES2_S2_S2_
                0x0000000000000000       0x1c bn_display_manager.o
 .text._ZN3_bn6assert9show_argsIJA16_cN2bn7fixed_tILi12EEEA4_cS5_EEEvPKcS8_S8_iDpRKT_
                0x0000000000000000       0x5c bn_display_manager.o
 .rodata._ZN2bn11rect_window9set_rightENS_7fixed_tILi12EEE.str1.4
                0x0000000000000000       0x34 bn_display_manager.o
 .text._ZN2bn11rect_window9set_rightENS_7fixed_tILi12EEE
                0x0000000000000000       0x74 bn_display_manager.o
 .text._ZN3_bn6assert9show_argsIJA17_cN2bn7fixed_tILi12EEEA4_cS5_EEEvPKcS8_S8_iDpRKT_
                0x0000000000000000       0x5c bn_display_manager.o
 .rodata._ZN2bn11rect_window10set_bottomENS_7fixed_tILi12EEE.str1.4
                0x0000000000000000       0x39 bn_display_manager.o
 .text._ZN2bn11rect_window10set_bottomENS_7fixed_tILi12EEE
                0x0000000000000000       0x74 bn_display_manager.o
 .rodata._ZN2bn11rect_window16set_bottom_rightERKNS_11fixed_pointE.str1.4
                0x0000000000000000       0x5b bn_display_manager.o
 .text._ZN2bn11rect_window16set_bottom_rightERKNS_11fixed_pointE
                0x0000000000000000       0x8c bn_display_manager.o
 .text._ZN2bn11rect_window16set_bottom_rightENS_7fixed_tILi12EEES2_
                0x0000000000000000       0x14 bn_display_manager.o
 .text._ZN3_bn6assert9show_argsIJA15_cN2bn7fixed_tILi12EEEA4_cS5_EEEvPKcS8_S8_iDpRKT_
                0x0000000000000000       0x5c bn_display_manager.o
 .rodata._ZN2bn11rect_window8set_leftENS_7fixed_tILi12EEE.str1.4
                0x0000000000000000       0x37 bn_display_manager.o
 .text._ZN2bn11rect_window8set_leftENS_7fixed_tILi12EEE
                0x0000000000000000       0x74 bn_display_manager.o
 .text._ZN3_bn6assert9show_argsIJA14_cN2bn7fixed_tILi12EEEA4_cS5_EEEvPKcS8_S8_iDpRKT_
                0x0000000000000000       0x5c bn_display_manager.o
 .rodata._ZN2bn11rect_window7set_topENS_7fixed_tILi12EEE.str1.4
                0x0000000000000000       0x32 bn_display_manager.o
 .text._ZN2bn11rect_window7set_topENS_7fixed_tILi12EEE
                0x0000000000000000       0x74 bn_display_manager.o
 .rodata._ZN2bn11rect_window12set_top_leftERKNS_11fixed_pointE.str1.4
                0x0000000000000000       0x57 bn_display_manager.o
 .text._ZN2bn11rect_window12set_top_leftERKNS_11fixed_pointE
                0x0000000000000000       0x8c bn_display_manager.o
 .text._ZN2bn11rect_window12set_top_leftENS_7fixed_tILi12EEES2_
                0x0000000000000000       0x14 bn_display_manager.o
 .group         0x0000000000000000        0xc bn_format.o
 .group         0x0000000000000000        0xc bn_format.o
 .text          0x0000000000000000        0x0 bn_format.o
 .data          0x0000000000000000        0x0 bn_format.o
 .bss           0x0000000000000000        0x0 bn_format.o
 .text._ZN3_bn6assert9show_argsIA21_cEEvPKcS4_S4_iRKT_
                0x0000000000000000       0x50 bn_format.o
 .text._ZN3_bn6assert9show_argsIA39_cEEvPKcS4_S4_iRKT_
                0x0000000000000000       0x50 bn_format.o
 .rodata._ZN3_bn6formatERN2bn13ostringstreamEPKcS4_.str1.4
                0x0000000000000000       0xcd bn_format.o
 .text._ZN3_bn6formatERN2bn13ostringstreamEPKcS4_
                0x0000000000000000       0xd0 bn_format.o
 .debug_info    0x0000000000000000     0x49fd bn_format.o
 .debug_abbrev  0x0000000000000000      0x831 bn_format.o
 .debug_loc     0x0000000000000000      0x422 bn_format.o
 .debug_aranges
                0x0000000000000000       0x30 bn_format.o
 .debug_ranges  0x0000000000000000       0xb8 bn_format.o
 .debug_line    0x0000000000000000      0x7ec bn_format.o
 .debug_str     0x0000000000000000     0x34ae bn_format.o
 .comment       0x0000000000000000       0x24 bn_format.o
 .debug_frame   0x0000000000000000       0x80 bn_format.o
 .group         0x0000000000000000        0xc bn_generic_pool.o
 .group         0x0000000000000000        0xc bn_generic_pool.o
 .text          0x0000000000000000        0x0 bn_generic_pool.o
 .data          0x0000000000000000        0x0 bn_generic_pool.o
 .bss           0x0000000000000000        0x0 bn_generic_pool.o
 .text._ZN3_bn6assert9show_argsIA13_cEEvPKcS4_S4_iRKT_
                0x0000000000000000       0x50 bn_generic_pool.o
 .text          0x0000000000000000        0x0 bn_gpio_manager.o
 .data          0x0000000000000000        0x0 bn_gpio_manager.o
 .bss           0x0000000000000000        0x0 bn_gpio_manager.o
 .text._ZN2bn6rumble7enabledEv
                0x0000000000000000        0xc bn_gpio_manager.o
 .text._ZN2bn6rumble11set_enabledEb
                0x0000000000000000       0x14 bn_gpio_manager.o
 .text._ZN2bn12gpio_manager14rumble_enabledEv
                0x0000000000000000        0xc bn_gpio_manager.o
 .text._ZN2bn12gpio_manager18set_rumble_enabledEb
                0x0000000000000000       0x14 bn_gpio_manager.o
 .text._ZN2bn12gpio_manager5sleepEv
                0x0000000000000000       0x3c bn_gpio_manager.o
 .text._ZN2bn12gpio_manager7wake_upEv
                0x0000000000000000       0x48 bn_gpio_manager.o
 .group         0x0000000000000000        0xc bn_hblank_effects_manager.o
 .group         0x0000000000000000        0xc bn_hblank_effects_manager.o
 .group         0x0000000000000000        0xc bn_hblank_effects_manager.o
 .group         0x0000000000000000        0xc bn_hblank_effects_manager.o
 .group         0x0000000000000000        0xc bn_hblank_effects_manager.o
 .group         0x0000000000000000        0xc bn_hblank_effects_manager.o
 .group         0x0000000000000000        0xc bn_hblank_effects_manager.o
 .group         0x0000000000000000        0xc bn_hblank_effects_manager.o
 .group         0x0000000000000000        0xc bn_hblank_effects_manager.o
 .group         0x0000000000000000       0x10 bn_hblank_effects_manager.o
 .group         0x0000000000000000       0x10 bn_hblank_effects_manager.o
 .group         0x0000000000000000       0x10 bn_hblank_effects_manager.o
 .group         0x0000000000000000       0x10 bn_hblank_effects_manager.o
 .group         0x0000000000000000       0x10 bn_hblank_effects_manager.o
 .group         0x0000000000000000       0x10 bn_hblank_effects_manager.o
 .group         0x0000000000000000       0x10 bn_hblank_effects_manager.o
 .group         0x0000000000000000       0x10 bn_hblank_effects_manager.o
 .group         0x0000000000000000       0x10 bn_hblank_effects_manager.o
 .group         0x0000000000000000        0xc bn_hblank_effects_manager.o
 .group         0x0000000000000000        0xc bn_hblank_effects_manager.o
 .group         0x0000000000000000        0x8 bn_hblank_effects_manager.o
 .group         0x0000000000000000        0xc bn_hblank_effects_manager.o
 .group         0x0000000000000000        0x8 bn_hblank_effects_manager.o
 .group         0x0000000000000000        0xc bn_hblank_effects_manager.o
 .group         0x0000000000000000        0x8 bn_hblank_effects_manager.o
 .group         0x0000000000000000        0xc bn_hblank_effects_manager.o
 .group         0x0000000000000000        0x8 bn_hblank_effects_manager.o
 .group         0x0000000000000000        0xc bn_hblank_effects_manager.o
 .group         0x0000000000000000        0x8 bn_hblank_effects_manager.o
 .group         0x0000000000000000        0xc bn_hblank_effects_manager.o
 .group         0x0000000000000000        0x8 bn_hblank_effects_manager.o
 .group         0x0000000000000000        0x8 bn_hblank_effects_manager.o
 .group         0x0000000000000000        0xc bn_hblank_effects_manager.o
 .group         0x0000000000000000        0x8 bn_hblank_effects_manager.o
 .group         0x0000000000000000        0xc bn_hblank_effects_manager.o
 .group         0x0000000000000000        0x8 bn_hblank_effects_manager.o
 .group         0x0000000000000000        0xc bn_hblank_effects_manager.o
 .group         0x0000000000000000        0x8 bn_hblank_effects_manager.o
 .group         0x0000000000000000        0x8 bn_hblank_effects_manager.o
 .group         0x0000000000000000        0xc bn_hblank_effects_manager.o
 .group         0x0000000000000000        0xc bn_hblank_effects_manager.o
 .group         0x0000000000000000        0x8 bn_hblank_effects_manager.o
 .group         0x0000000000000000        0x8 bn_hblank_effects_manager.o
 .group         0x0000000000000000        0x8 bn_hblank_effects_manager.o
 .group         0x0000000000000000        0xc bn_hblank_effects_manager.o
 .group         0x0000000000000000        0xc bn_hblank_effects_manager.o
 .group         0x0000000000000000        0xc bn_hblank_effects_manager.o
 .group         0x0000000000000000        0xc bn_hblank_effects_manager.o
 .group         0x0000000000000000        0xc bn_hblank_effects_manager.o
 .group         0x0000000000000000        0xc bn_hblank_effects_manager.o
 .group         0x0000000000000000        0xc bn_hblank_effects_manager.o
 .group         0x0000000000000000        0xc bn_hblank_effects_manager.o
 .group         0x0000000000000000        0xc bn_hblank_effects_manager.o
 .group         0x0000000000000000        0xc bn_hblank_effects_manager.o
 .group         0x0000000000000000        0xc bn_hblank_effects_manager.o
 .group         0x0000000000000000        0xc bn_hblank_effects_manager.o
 .group         0x0000000000000000        0xc bn_hblank_effects_manager.o
 .group         0x0000000000000000        0xc bn_hblank_effects_manager.o
 .group         0x0000000000000000        0xc bn_hblank_effects_manager.o
 .group         0x0000000000000000        0xc bn_hblank_effects_manager.o
 .group         0x0000000000000000        0xc bn_hblank_effects_manager.o
 .group         0x0000000000000000        0xc bn_hblank_effects_manager.o
 .group         0x0000000000000000        0xc bn_hblank_effects_manager.o
 .group         0x0000000000000000        0xc bn_hblank_effects_manager.o
 .group         0x0000000000000000        0xc bn_hblank_effects_manager.o
 .group         0x0000000000000000        0xc bn_hblank_effects_manager.o
 .group         0x0000000000000000        0xc bn_hblank_effects_manager.o
 .group         0x0000000000000000        0xc bn_hblank_effects_manager.o
 .group         0x0000000000000000        0xc bn_hblank_effects_manager.o
 .group         0x0000000000000000        0xc bn_hblank_effects_manager.o
 .group         0x0000000000000000        0xc bn_hblank_effects_manager.o
 .group         0x0000000000000000        0xc bn_hblank_effects_manager.o
 .group         0x0000000000000000        0xc bn_hblank_effects_manager.o
 .group         0x0000000000000000        0xc bn_hblank_effects_manager.o
 .group         0x0000000000000000        0xc bn_hblank_effects_manager.o
 .group         0x0000000000000000        0xc bn_hblank_effects_manager.o
 .group         0x0000000000000000        0xc bn_hblank_effects_manager.o
 .group         0x0000000000000000        0xc bn_hblank_effects_manager.o
 .group         0x0000000000000000        0xc bn_hblank_effects_manager.o
 .group         0x0000000000000000        0xc bn_hblank_effects_manager.o
 .group         0x0000000000000000        0xc bn_hblank_effects_manager.o
 .group         0x0000000000000000        0xc bn_hblank_effects_manager.o
 .group         0x0000000000000000        0xc bn_hblank_effects_manager.o
 .group         0x0000000000000000        0xc bn_hblank_effects_manager.o
 .group         0x0000000000000000        0xc bn_hblank_effects_manager.o
 .group         0x0000000000000000        0xc bn_hblank_effects_manager.o
 .group         0x0000000000000000        0xc bn_hblank_effects_manager.o
 .group         0x0000000000000000        0xc bn_hblank_effects_manager.o
 .group         0x0000000000000000        0xc bn_hblank_effects_manager.o
 .group         0x0000000000000000        0xc bn_hblank_effects_manager.o
 .group         0x0000000000000000        0xc bn_hblank_effects_manager.o
 .group         0x0000000000000000        0xc bn_hblank_effects_manager.o
 .group         0x0000000000000000        0xc bn_hblank_effects_manager.o
 .group         0x0000000000000000        0xc bn_hblank_effects_manager.o
 .group         0x0000000000000000        0xc bn_hblank_effects_manager.o
 .group         0x0000000000000000        0xc bn_hblank_effects_manager.o
 .group         0x0000000000000000        0xc bn_hblank_effects_manager.o
 .group         0x0000000000000000        0xc bn_hblank_effects_manager.o
 .group         0x0000000000000000        0xc bn_hblank_effects_manager.o
 .group         0x0000000000000000        0xc bn_hblank_effects_manager.o
 .group         0x0000000000000000        0xc bn_hblank_effects_manager.o
 .group         0x0000000000000000        0xc bn_hblank_effects_manager.o
 .group         0x0000000000000000        0xc bn_hblank_effects_manager.o
 .group         0x0000000000000000        0xc bn_hblank_effects_manager.o
 .group         0x0000000000000000        0xc bn_hblank_effects_manager.o
 .group         0x0000000000000000        0xc bn_hblank_effects_manager.o
 .text          0x0000000000000000        0x0 bn_hblank_effects_manager.o
 .data          0x0000000000000000        0x0 bn_hblank_effects_manager.o
 .bss           0x0000000000000000        0x0 bn_hblank_effects_manager.o
 .text._ZN2bn4iany12type_managerINS_17sprite_shape_sizeEED2Ev
                0x0000000000000000        0x4 bn_hblank_effects_manager.o
 .text._ZN2bn4iany12type_managerINS_35sprite_second_attributes_last_valueEED2Ev
                0x0000000000000000        0x4 bn_hblank_effects_manager.o
 .text._ZN2bn4iany12type_managerINS_35sprite_first_attributes_hbe_handler15last_value_typeEED2Ev
                0x0000000000000000        0x4 bn_hblank_effects_manager.o
 .text._ZN2bn4iany12type_managerINS_45affine_bg_pivot_vertical_position_hbe_handler15last_value_typeEED2Ev
                0x0000000000000000        0x4 bn_hblank_effects_manager.o
 .text._ZN2bn4iany12type_managerINS_47affine_bg_pivot_horizontal_position_hbe_handler15last_value_typeEED2Ev
                0x0000000000000000        0x4 bn_hblank_effects_manager.o
 .text._ZN2bn4iany12type_managerIiED2Ev
                0x0000000000000000        0x4 bn_hblank_effects_manager.o
 .text._ZN2bn4iany12type_managerINS_32affine_bg_attributes_hbe_handler15last_value_typeEED2Ev
                0x0000000000000000        0x4 bn_hblank_effects_manager.o
 .text._ZN2bn4iany12type_managerINS_33regular_bg_attributes_hbe_handler15last_value_typeEED2Ev
                0x0000000000000000        0x4 bn_hblank_effects_manager.o
 .text._ZN2bn4iany12type_managerINS_4pairIiiEEED2Ev
                0x0000000000000000        0x4 bn_hblank_effects_manager.o
 .text._ZNK2bn4iany12type_managerINS_17sprite_shape_sizeEE4typeEv
                0x0000000000000000        0x8 bn_hblank_effects_manager.o
 .text._ZNK2bn4iany12type_managerINS_17sprite_shape_sizeEE4swapERS0_S4_
                0x0000000000000000       0x1c bn_hblank_effects_manager.o
 .text._ZNK2bn4iany12type_managerINS_17sprite_shape_sizeEE7destroyERS0_
                0x0000000000000000        0x4 bn_hblank_effects_manager.o
 .text._ZNK2bn4iany12type_managerINS_35sprite_second_attributes_last_valueEE4typeEv
                0x0000000000000000        0x8 bn_hblank_effects_manager.o
 .text._ZNK2bn4iany12type_managerINS_35sprite_second_attributes_last_valueEE7destroyERS0_
                0x0000000000000000        0x4 bn_hblank_effects_manager.o
 .text._ZNK2bn4iany12type_managerINS_35sprite_first_attributes_hbe_handler15last_value_typeEE4typeEv
                0x0000000000000000        0x8 bn_hblank_effects_manager.o
 .text._ZNK2bn4iany12type_managerINS_35sprite_first_attributes_hbe_handler15last_value_typeEE7destroyERS0_
                0x0000000000000000        0x4 bn_hblank_effects_manager.o
 .text._ZNK2bn4iany12type_managerINS_45affine_bg_pivot_vertical_position_hbe_handler15last_value_typeEE4typeEv
                0x0000000000000000        0x8 bn_hblank_effects_manager.o
 .text._ZNK2bn4iany12type_managerINS_45affine_bg_pivot_vertical_position_hbe_handler15last_value_typeEE7destroyERS0_
                0x0000000000000000        0x4 bn_hblank_effects_manager.o
 .text._ZNK2bn4iany12type_managerINS_47affine_bg_pivot_horizontal_position_hbe_handler15last_value_typeEE4typeEv
                0x0000000000000000        0x8 bn_hblank_effects_manager.o
 .text._ZNK2bn4iany12type_managerINS_47affine_bg_pivot_horizontal_position_hbe_handler15last_value_typeEE7destroyERS0_
                0x0000000000000000        0x4 bn_hblank_effects_manager.o
 .text._ZNK2bn4iany12type_managerIiE4typeEv
                0x0000000000000000        0x8 bn_hblank_effects_manager.o
 .text._ZNK2bn4iany12type_managerIiE4swapERS0_S3_
                0x0000000000000000       0x10 bn_hblank_effects_manager.o
 .text._ZNK2bn4iany12type_managerIiE7destroyERS0_
                0x0000000000000000        0x4 bn_hblank_effects_manager.o
 .text._ZNK2bn4iany12type_managerINS_32affine_bg_attributes_hbe_handler15last_value_typeEE4typeEv
                0x0000000000000000        0x8 bn_hblank_effects_manager.o
 .text._ZNK2bn4iany12type_managerINS_32affine_bg_attributes_hbe_handler15last_value_typeEE7destroyERS0_
                0x0000000000000000        0x4 bn_hblank_effects_manager.o
 .text._ZNK2bn4iany12type_managerINS_33regular_bg_attributes_hbe_handler15last_value_typeEE4typeEv
                0x0000000000000000        0x8 bn_hblank_effects_manager.o
 .text._ZNK2bn4iany12type_managerINS_33regular_bg_attributes_hbe_handler15last_value_typeEE7destroyERS0_
                0x0000000000000000        0x4 bn_hblank_effects_manager.o
 .text._ZNK2bn4iany12type_managerINS_4pairIiiEEE4typeEv
                0x0000000000000000        0x8 bn_hblank_effects_manager.o
 .text._ZNK2bn4iany12type_managerINS_4pairIiiEEE4swapERS0_S5_
                0x0000000000000000       0x18 bn_hblank_effects_manager.o
 .text._ZNK2bn4iany12type_managerINS_4pairIiiEEE7destroyERS0_
                0x0000000000000000        0x4 bn_hblank_effects_manager.o
 .text._ZNK2bn4iany12type_managerINS_35sprite_second_attributes_last_valueEE4swapERS0_S4_
                0x0000000000000000       0x2c bn_hblank_effects_manager.o
 .text._ZNK2bn4iany12type_managerINS_35sprite_first_attributes_hbe_handler15last_value_typeEE4swapERS0_S5_
                0x0000000000000000       0x2c bn_hblank_effects_manager.o
 .text._ZNK2bn4iany12type_managerINS_45affine_bg_pivot_vertical_position_hbe_handler15last_value_typeEE4swapERS0_S5_
                0x0000000000000000       0x24 bn_hblank_effects_manager.o
 .text._ZNK2bn4iany12type_managerINS_47affine_bg_pivot_horizontal_position_hbe_handler15last_value_typeEE4swapERS0_S5_
                0x0000000000000000       0x24 bn_hblank_effects_manager.o
 .text._ZNK2bn4iany12type_managerINS_32affine_bg_attributes_hbe_handler15last_value_typeEE4swapERS0_S5_
                0x0000000000000000       0x24 bn_hblank_effects_manager.o
 .text._ZNK2bn4iany12type_managerINS_33regular_bg_attributes_hbe_handler15last_value_typeEE4swapERS0_S5_
                0x0000000000000000       0x30 bn_hblank_effects_manager.o
 .text._ZN2bn4iany12type_managerINS_17sprite_shape_sizeEED0Ev
                0x0000000000000000       0x14 bn_hblank_effects_manager.o
 .text._ZN2bn4iany12type_managerINS_35sprite_second_attributes_last_valueEED0Ev
                0x0000000000000000       0x14 bn_hblank_effects_manager.o
 .text._ZN2bn4iany12type_managerINS_35sprite_first_attributes_hbe_handler15last_value_typeEED0Ev
                0x0000000000000000       0x14 bn_hblank_effects_manager.o
 .text._ZN2bn4iany12type_managerINS_45affine_bg_pivot_vertical_position_hbe_handler15last_value_typeEED0Ev
                0x0000000000000000       0x14 bn_hblank_effects_manager.o
 .text._ZN2bn4iany12type_managerINS_47affine_bg_pivot_horizontal_position_hbe_handler15last_value_typeEED0Ev
                0x0000000000000000       0x14 bn_hblank_effects_manager.o
 .text._ZN2bn4iany12type_managerIiED0Ev
                0x0000000000000000       0x14 bn_hblank_effects_manager.o
 .text._ZN2bn4iany12type_managerINS_32affine_bg_attributes_hbe_handler15last_value_typeEED0Ev
                0x0000000000000000       0x14 bn_hblank_effects_manager.o
 .text._ZN2bn4iany12type_managerINS_33regular_bg_attributes_hbe_handler15last_value_typeEED0Ev
                0x0000000000000000       0x14 bn_hblank_effects_manager.o
 .text._ZN2bn4iany12type_managerINS_4pairIiiEEED0Ev
                0x0000000000000000       0x14 bn_hblank_effects_manager.o
 .text._ZN2bn4hbes10used_countEv
                0x0000000000000000       0x1c bn_hblank_effects_manager.o
 .text._ZN2bn4hbes15available_countEv
                0x0000000000000000       0x10 bn_hblank_effects_manager.o
 .text._ZNK2bn7hbe_ptr7visibleEv
                0x0000000000000000       0x1c bn_hblank_effects_manager.o
 .text._ZN2bn7hbe_ptrC2ERKS0_
                0x0000000000000000       0x20 bn_hblank_effects_manager.o
 .text._ZN2bn24bg_palette_color_hbe_ptr17reload_colors_refEv
                0x0000000000000000       0x2c bn_hblank_effects_manager.o
 .text._ZN2bn24bg_palette_color_hbe_ptr4swapERS0_
                0x0000000000000000       0x2c bn_hblank_effects_manager.o
 .text._ZN2bn24bg_palette_color_hbe_ptrC2EiiONS_14bg_palette_ptrE
                0x0000000000000000       0x10 bn_hblank_effects_manager.o
 .text._ZN2bn37bg_palettes_transparent_color_hbe_ptr17reload_colors_refEv
                0x0000000000000000       0x2c bn_hblank_effects_manager.o
 .text._ZN2bn37bg_palettes_transparent_color_hbe_ptr4swapERS0_
                0x0000000000000000       0x10 bn_hblank_effects_manager.o
 .text._ZN2bn37bg_palettes_transparent_color_hbe_ptrC2Ei
                0x0000000000000000        0x4 bn_hblank_effects_manager.o
 .text._ZN2bn27blending_fade_alpha_hbe_ptr17reload_alphas_refEv
                0x0000000000000000       0x2c bn_hblank_effects_manager.o
 .text._ZN2bn40blending_transparency_attributes_hbe_ptr21reload_attributes_refEv
                0x0000000000000000       0x2c bn_hblank_effects_manager.o
 .text._ZN2bn18green_swap_hbe_ptr17reload_states_refEv
                0x0000000000000000       0x2c bn_hblank_effects_manager.o
 .text._ZN2bn18green_swap_hbe_ptr4swapERS0_
                0x0000000000000000       0x10 bn_hblank_effects_manager.o
 .text._ZN2bn25mosaic_attributes_hbe_ptr21reload_attributes_refEv
                0x0000000000000000       0x2c bn_hblank_effects_manager.o
 .text._ZN2bn30rect_window_boundaries_hbe_ptr17reload_deltas_refEv
                0x0000000000000000       0x2c bn_hblank_effects_manager.o
 .text._ZN2bn30rect_window_boundaries_hbe_ptr4swapERS0_
                0x0000000000000000       0x18 bn_hblank_effects_manager.o
 .text._ZN2bn30rect_window_boundaries_hbe_ptrC2EiNS_11rect_windowE
                0x0000000000000000        0x8 bn_hblank_effects_manager.o
 .text._ZN2bn29regular_bg_attributes_hbe_ptr21reload_attributes_refEv
                0x0000000000000000       0x2c bn_hblank_effects_manager.o
 .text._ZN2bn29regular_bg_attributes_hbe_ptr4swapERS0_
                0x0000000000000000       0x18 bn_hblank_effects_manager.o
 .text._ZN2bn29regular_bg_attributes_hbe_ptrC2EiONS_14regular_bg_ptrE
                0x0000000000000000        0xc bn_hblank_effects_manager.o
 .text._ZN2bn28affine_bg_attributes_hbe_ptr21reload_attributes_refEv
                0x0000000000000000       0x2c bn_hblank_effects_manager.o
 .text._ZN2bn28affine_bg_attributes_hbe_ptr4swapERS0_
                0x0000000000000000       0x18 bn_hblank_effects_manager.o
 .text._ZN2bn28affine_bg_attributes_hbe_ptrC2EiONS_13affine_bg_ptrE
                0x0000000000000000        0xc bn_hblank_effects_manager.o
 .text._ZN2bn27regular_bg_position_hbe_ptr17reload_deltas_refEv
                0x0000000000000000       0x2c bn_hblank_effects_manager.o
 .text._ZN2bn27regular_bg_position_hbe_ptr4swapERS0_
                0x0000000000000000       0x18 bn_hblank_effects_manager.o
 .text._ZN2bn27regular_bg_position_hbe_ptrC2EiONS_14regular_bg_ptrE
                0x0000000000000000        0xc bn_hblank_effects_manager.o
 .text._ZN2bn32affine_bg_pivot_position_hbe_ptr17reload_deltas_refEv
                0x0000000000000000       0x2c bn_hblank_effects_manager.o
 .text._ZN2bn32affine_bg_pivot_position_hbe_ptr4swapERS0_
                0x0000000000000000       0x18 bn_hblank_effects_manager.o
 .text._ZN2bn32affine_bg_pivot_position_hbe_ptrC2EiONS_13affine_bg_ptrE
                0x0000000000000000        0xc bn_hblank_effects_manager.o
 .text._ZN2bn29affine_bg_pa_register_hbe_ptr21reload_attributes_refEv
                0x0000000000000000       0x2c bn_hblank_effects_manager.o
 .text._ZN2bn29affine_bg_pa_register_hbe_ptr17reload_values_refEv
                0x0000000000000000       0x2c bn_hblank_effects_manager.o
 .text._ZN2bn29affine_bg_pa_register_hbe_ptr4swapERS0_
                0x0000000000000000       0x20 bn_hblank_effects_manager.o
 .text._ZN2bn29affine_bg_pa_register_hbe_ptrC2EibONS_13affine_bg_ptrE
                0x0000000000000000       0x10 bn_hblank_effects_manager.o
 .text._ZN2bn29affine_bg_pb_register_hbe_ptr21reload_attributes_refEv
                0x0000000000000000       0x2c bn_hblank_effects_manager.o
 .text._ZN2bn29affine_bg_pb_register_hbe_ptr17reload_values_refEv
                0x0000000000000000       0x2c bn_hblank_effects_manager.o
 .text._ZN2bn29affine_bg_pb_register_hbe_ptr4swapERS0_
                0x0000000000000000       0x20 bn_hblank_effects_manager.o
 .text._ZN2bn29affine_bg_pb_register_hbe_ptrC2EibONS_13affine_bg_ptrE
                0x0000000000000000       0x10 bn_hblank_effects_manager.o
 .text._ZN2bn29affine_bg_pc_register_hbe_ptr21reload_attributes_refEv
                0x0000000000000000       0x2c bn_hblank_effects_manager.o
 .text._ZN2bn29affine_bg_pc_register_hbe_ptr17reload_values_refEv
                0x0000000000000000       0x2c bn_hblank_effects_manager.o
 .text._ZN2bn29affine_bg_pc_register_hbe_ptr4swapERS0_
                0x0000000000000000       0x20 bn_hblank_effects_manager.o
 .text._ZN2bn29affine_bg_pc_register_hbe_ptrC2EibONS_13affine_bg_ptrE
                0x0000000000000000       0x10 bn_hblank_effects_manager.o
 .text._ZN2bn29affine_bg_pd_register_hbe_ptr21reload_attributes_refEv
                0x0000000000000000       0x2c bn_hblank_effects_manager.o
 .text._ZN2bn29affine_bg_pd_register_hbe_ptr17reload_values_refEv
                0x0000000000000000       0x2c bn_hblank_effects_manager.o
 .text._ZN2bn29affine_bg_pd_register_hbe_ptr4swapERS0_
                0x0000000000000000       0x20 bn_hblank_effects_manager.o
 .text._ZN2bn29affine_bg_pd_register_hbe_ptrC2EibONS_13affine_bg_ptrE
                0x0000000000000000       0x10 bn_hblank_effects_manager.o
 .text._ZN2bn29affine_bg_dx_register_hbe_ptr21reload_attributes_refEv
                0x0000000000000000       0x2c bn_hblank_effects_manager.o
 .text._ZN2bn29affine_bg_dx_register_hbe_ptr17reload_values_refEv
                0x0000000000000000       0x2c bn_hblank_effects_manager.o
 .text._ZN2bn29affine_bg_dx_register_hbe_ptr4swapERS0_
                0x0000000000000000       0x20 bn_hblank_effects_manager.o
 .text._ZN2bn29affine_bg_dx_register_hbe_ptrC2EibONS_13affine_bg_ptrE
                0x0000000000000000       0x10 bn_hblank_effects_manager.o
 .text._ZN2bn29affine_bg_dy_register_hbe_ptr21reload_attributes_refEv
                0x0000000000000000       0x2c bn_hblank_effects_manager.o
 .text._ZN2bn29affine_bg_dy_register_hbe_ptr17reload_values_refEv
                0x0000000000000000       0x2c bn_hblank_effects_manager.o
 .text._ZN2bn29affine_bg_dy_register_hbe_ptr4swapERS0_
                0x0000000000000000       0x20 bn_hblank_effects_manager.o
 .text._ZN2bn29affine_bg_dy_register_hbe_ptrC2EibONS_13affine_bg_ptrE
                0x0000000000000000       0x10 bn_hblank_effects_manager.o
 .text._ZN2bn32affine_bg_mat_attributes_hbe_ptr21reload_attributes_refEv
                0x0000000000000000       0xd4 bn_hblank_effects_manager.o
 .text._ZN2bn32affine_bg_mat_attributes_hbe_ptr4swapERS0_
                0x0000000000000000       0xb0 bn_hblank_effects_manager.o
 .text._ZN2bn32affine_bg_mat_attributes_hbe_ptrC2EONS_29affine_bg_pa_register_hbe_ptrEONS_29affine_bg_pb_register_hbe_ptrEONS_29affine_bg_pc_register_hbe_ptrEONS_29affine_bg_pd_register_hbe_ptrEONS_29affine_bg_dx_register_hbe_ptrEONS_29affine_bg_dy_register_hbe_ptrE
                0x0000000000000000       0x98 bn_hblank_effects_manager.o
 .text._ZN2bn36sprite_affine_mat_attributes_hbe_ptr21reload_attributes_refEv
                0x0000000000000000       0x94 bn_hblank_effects_manager.o
 .text._ZN2bn36sprite_affine_mat_attributes_hbe_ptr4swapERS0_
                0x0000000000000000       0x84 bn_hblank_effects_manager.o
 .text._ZN2bn36sprite_affine_mat_attributes_hbe_ptrC2EONS_37sprite_affine_mat_pa_register_hbe_ptrEONS_37sprite_affine_mat_pb_register_hbe_ptrEONS_37sprite_affine_mat_pc_register_hbe_ptrEONS_37sprite_affine_mat_pd_register_hbe_ptrE
                0x0000000000000000       0x5c bn_hblank_effects_manager.o
 .text._ZN2bn37sprite_affine_mat_pa_register_hbe_ptr21reload_attributes_refEv
                0x0000000000000000       0x2c bn_hblank_effects_manager.o
 .text._ZN2bn37sprite_affine_mat_pa_register_hbe_ptr17reload_values_refEv
                0x0000000000000000       0x2c bn_hblank_effects_manager.o
 .text._ZN2bn37sprite_affine_mat_pa_register_hbe_ptr4swapERS0_
                0x0000000000000000       0x24 bn_hblank_effects_manager.o
 .text._ZN2bn37sprite_affine_mat_pa_register_hbe_ptrC2EibONS_21sprite_affine_mat_ptrE
                0x0000000000000000       0x10 bn_hblank_effects_manager.o
 .text._ZN2bn37sprite_affine_mat_pb_register_hbe_ptr21reload_attributes_refEv
                0x0000000000000000       0x2c bn_hblank_effects_manager.o
 .text._ZN2bn37sprite_affine_mat_pb_register_hbe_ptr17reload_values_refEv
                0x0000000000000000       0x2c bn_hblank_effects_manager.o
 .text._ZN2bn37sprite_affine_mat_pb_register_hbe_ptr4swapERS0_
                0x0000000000000000       0x24 bn_hblank_effects_manager.o
 .text._ZN2bn37sprite_affine_mat_pb_register_hbe_ptrC2EibONS_21sprite_affine_mat_ptrE
                0x0000000000000000       0x10 bn_hblank_effects_manager.o
 .text._ZN2bn37sprite_affine_mat_pc_register_hbe_ptr21reload_attributes_refEv
                0x0000000000000000       0x2c bn_hblank_effects_manager.o
 .text._ZN2bn37sprite_affine_mat_pc_register_hbe_ptr17reload_values_refEv
                0x0000000000000000       0x2c bn_hblank_effects_manager.o
 .text._ZN2bn37sprite_affine_mat_pc_register_hbe_ptr4swapERS0_
                0x0000000000000000       0x24 bn_hblank_effects_manager.o
 .text._ZN2bn37sprite_affine_mat_pc_register_hbe_ptrC2EibONS_21sprite_affine_mat_ptrE
                0x0000000000000000       0x10 bn_hblank_effects_manager.o
 .text._ZN2bn37sprite_affine_mat_pd_register_hbe_ptr21reload_attributes_refEv
                0x0000000000000000       0x2c bn_hblank_effects_manager.o
 .text._ZN2bn37sprite_affine_mat_pd_register_hbe_ptr17reload_values_refEv
                0x0000000000000000       0x2c bn_hblank_effects_manager.o
 .text._ZN2bn37sprite_affine_mat_pd_register_hbe_ptr4swapERS0_
                0x0000000000000000       0x24 bn_hblank_effects_manager.o
 .text._ZN2bn37sprite_affine_mat_pd_register_hbe_ptrC2EibONS_21sprite_affine_mat_ptrE
                0x0000000000000000       0x10 bn_hblank_effects_manager.o
 .text._ZN2bn39sprite_affine_second_attributes_hbe_ptr21reload_attributes_refEv
                0x0000000000000000       0x2c bn_hblank_effects_manager.o
 .text._ZN2bn39sprite_affine_second_attributes_hbe_ptr4swapERS0_
                0x0000000000000000       0x18 bn_hblank_effects_manager.o
 .text._ZN2bn39sprite_affine_second_attributes_hbe_ptrC2EiONS_10sprite_ptrE
                0x0000000000000000        0xc bn_hblank_effects_manager.o
 .text._ZN2bn31sprite_first_attributes_hbe_ptr21reload_attributes_refEv
                0x0000000000000000       0x2c bn_hblank_effects_manager.o
 .text._ZN2bn31sprite_first_attributes_hbe_ptr4swapERS0_
                0x0000000000000000       0x18 bn_hblank_effects_manager.o
 .text._ZN2bn31sprite_first_attributes_hbe_ptrC2EiONS_10sprite_ptrE
                0x0000000000000000        0xc bn_hblank_effects_manager.o
 .text._ZN2bn28sprite_palette_color_hbe_ptr17reload_colors_refEv
                0x0000000000000000       0x2c bn_hblank_effects_manager.o
 .text._ZN2bn28sprite_palette_color_hbe_ptr4swapERS0_
                0x0000000000000000       0x2c bn_hblank_effects_manager.o
 .text._ZN2bn28sprite_palette_color_hbe_ptrC2EiiONS_18sprite_palette_ptrE
                0x0000000000000000       0x10 bn_hblank_effects_manager.o
 .text._ZN2bn23sprite_position_hbe_ptr17reload_deltas_refEv
                0x0000000000000000       0x2c bn_hblank_effects_manager.o
 .text._ZN2bn23sprite_position_hbe_ptr4swapERS0_
                0x0000000000000000       0x18 bn_hblank_effects_manager.o
 .text._ZN2bn23sprite_position_hbe_ptrC2EiONS_10sprite_ptrE
                0x0000000000000000        0xc bn_hblank_effects_manager.o
 .text._ZN2bn40sprite_regular_second_attributes_hbe_ptr21reload_attributes_refEv
                0x0000000000000000       0x2c bn_hblank_effects_manager.o
 .text._ZN2bn40sprite_regular_second_attributes_hbe_ptr4swapERS0_
                0x0000000000000000       0x18 bn_hblank_effects_manager.o
 .text._ZN2bn40sprite_regular_second_attributes_hbe_ptrC2EiONS_10sprite_ptrE
                0x0000000000000000        0xc bn_hblank_effects_manager.o
 .text._ZN2bn31sprite_third_attributes_hbe_ptr21reload_attributes_refEv
                0x0000000000000000       0x2c bn_hblank_effects_manager.o
 .text._ZN2bn31sprite_third_attributes_hbe_ptr4swapERS0_
                0x0000000000000000       0x18 bn_hblank_effects_manager.o
 .text._ZN2bn31sprite_third_attributes_hbe_ptrC2EiONS_10sprite_ptrE
                0x0000000000000000        0xc bn_hblank_effects_manager.o
 .text._ZN2bn22hblank_effects_manager10used_countEv
                0x0000000000000000       0x1c bn_hblank_effects_manager.o
 .text._ZN2bn22hblank_effects_manager15available_countEv
                0x0000000000000000       0x10 bn_hblank_effects_manager.o
 .text._ZN2bn22hblank_effects_manager6enableEv
                0x0000000000000000       0x24 bn_hblank_effects_manager.o
 .text._ZN2bn22hblank_effects_manager15increase_usagesEi
                0x0000000000000000       0x18 bn_hblank_effects_manager.o
 .text._ZN2bn22hblank_effects_manager10values_refEi
                0x0000000000000000       0x14 bn_hblank_effects_manager.o
 .text._ZN2bn22hblank_effects_manager17reload_values_refEi
                0x0000000000000000       0x28 bn_hblank_effects_manager.o
 .text._ZN2bn22hblank_effects_manager7visibleEi
                0x0000000000000000       0x18 bn_hblank_effects_manager.o
 .text._ZN3_bn6assert9show_argsIA18_ciEEvPKcS4_S4_iRKT_RKT0_
                0x0000000000000000       0x58 bn_hblank_effects_manager.o
 .rodata._ZN2bn22hblank_effects_manager12_GLOBAL__N_19item_type7cleanupEv.isra.0.str1.4
                0x0000000000000000        0x8 bn_hblank_effects_manager.o
 .text._ZN2bn22hblank_effects_manager12_GLOBAL__N_19item_type7cleanupEv.isra.0
                0x0000000000000000       0x94 bn_hblank_effects_manager.o
 .rodata._ZN2bn22hblank_effects_manager12_GLOBAL__N_19item_type7cleanupEv.isra.0
                0x0000000000000000       0xa4 bn_hblank_effects_manager.o
 .rodata._ZN2bn22hblank_effects_manager12_GLOBAL__N_126_update_visible_item_indexEi.str1.4
                0x0000000000000000        0x5 bn_hblank_effects_manager.o
 .text._ZN2bn22hblank_effects_manager12_GLOBAL__N_126_update_visible_item_indexEi
                0x0000000000000000       0x98 bn_hblank_effects_manager.o
 .text._ZN2bn22hblank_effects_manager11set_visibleEib
                0x0000000000000000       0x70 bn_hblank_effects_manager.o
 .text._ZN2bn7hbe_ptr11set_visibleEb
                0x0000000000000000       0x74 bn_hblank_effects_manager.o
 .text._ZN2bn36sprite_affine_mat_attributes_hbe_ptr11set_visibleEb
                0x0000000000000000       0xa0 bn_hblank_effects_manager.o
 .text._ZN2bn32affine_bg_mat_attributes_hbe_ptr11set_visibleEb
                0x0000000000000000       0xb4 bn_hblank_effects_manager.o
 .text._ZN3_bn6assert9show_argsIA66_cEEvPKcS4_S4_iRKT_
                0x0000000000000000       0x50 bn_hblank_effects_manager.o
 .text._ZN3_bn6assert9show_argsIA42_cEEvPKcS4_S4_iRKT_
                0x0000000000000000       0x50 bn_hblank_effects_manager.o
 .text._ZN3_bn6assert9show_argsIA22_cEEvPKcS4_S4_iRKT_
                0x0000000000000000       0x50 bn_hblank_effects_manager.o
 .rodata._ZN2bn8optionalINS_29affine_bg_pa_register_hbe_ptrEEdeEv.part.0.str1.4
                0x0000000000000000       0x3a bn_hblank_effects_manager.o
 .text._ZN2bn8optionalINS_29affine_bg_pa_register_hbe_ptrEEdeEv.part.0
                0x0000000000000000       0x28 bn_hblank_effects_manager.o
 .text._ZN3_bn6assert9show_argsIA21_cEEvPKcS4_S4_iRKT_
                0x0000000000000000       0x50 bn_hblank_effects_manager.o
 .text._ZN3_bn6assert9show_argsIA18_cEEvPKcS4_S4_iRKT_
                0x0000000000000000       0x50 bn_hblank_effects_manager.o
 .text._ZN3_bn6assert9show_argsIA25_cEEvPKcS4_S4_iRKT_
                0x0000000000000000       0x50 bn_hblank_effects_manager.o
 .text._ZN3_bn6assert9show_argsIA23_cEEvPKcS4_S4_iRKT_
                0x0000000000000000       0x50 bn_hblank_effects_manager.o
 .text._ZN3_bn6assert9show_argsIA34_cEEvPKcS4_S4_iRKT_
                0x0000000000000000       0x50 bn_hblank_effects_manager.o
 .text._ZN3_bn6assert9show_argsIJA26_cjA4_csEEEvPKcS5_S5_iDpRKT_
                0x0000000000000000       0x6c bn_hblank_effects_manager.o
 .text._ZN3_bn6assert9show_argsIA19_cEEvPKcS4_S4_iRKT_
                0x0000000000000000       0x50 bn_hblank_effects_manager.o
 .text._ZN3_bn6assert9show_argsIA15_cEEvPKcS4_S4_iRKT_
                0x0000000000000000       0x50 bn_hblank_effects_manager.o
 .text._ZN2bn22hblank_effects_manager15decrease_usagesEi.part.0
                0x0000000000000000      0x18c bn_hblank_effects_manager.o
 .text._ZN2bn22hblank_effects_manager15decrease_usagesEi
                0x0000000000000000       0x24 bn_hblank_effects_manager.o
 .text._ZN2bn7hbe_ptrD2Ev
                0x0000000000000000       0x34 bn_hblank_effects_manager.o
 .text._ZN2bn7hbe_ptraSERKS0_
                0x0000000000000000       0x50 bn_hblank_effects_manager.o
 .text._ZN2bn13ostringstream11append_argsIA4_cJiEEEvRKT_DpRKT0_
                0x0000000000000000       0x18 bn_hblank_effects_manager.o
 .text._ZN3_bn6assert9show_argsIJA39_cPKN2bn23sprite_third_attributesEA4_ciEEEvPKcS9_S9_iDpRKT_
                0x0000000000000000       0x64 bn_hblank_effects_manager.o
 .rodata._ZNK2bn31sprite_third_attributes_hbe_ptr14attributes_refEv.str1.4
                0x0000000000000000       0x53 bn_hblank_effects_manager.o
 .text._ZNK2bn31sprite_third_attributes_hbe_ptr14attributes_refEv
                0x0000000000000000       0x68 bn_hblank_effects_manager.o
 .text._ZN3_bn6assert9show_argsIJA39_cPKN2bn32sprite_regular_second_attributesEA4_ciEEEvPKcS9_S9_iDpRKT_
                0x0000000000000000       0x64 bn_hblank_effects_manager.o
 .text._ZNK2bn40sprite_regular_second_attributes_hbe_ptr14attributes_refEv
                0x0000000000000000       0x68 bn_hblank_effects_manager.o
 .text._ZN3_bn6assert9show_argsIJA39_cPKN2bn23sprite_first_attributesEA4_ciEEEvPKcS9_S9_iDpRKT_
                0x0000000000000000       0x64 bn_hblank_effects_manager.o
 .text._ZNK2bn31sprite_first_attributes_hbe_ptr14attributes_refEv
                0x0000000000000000       0x68 bn_hblank_effects_manager.o
 .text._ZN3_bn6assert9show_argsIJA39_cPKN2bn31sprite_affine_second_attributesEA4_ciEEEvPKcS9_S9_iDpRKT_
                0x0000000000000000       0x64 bn_hblank_effects_manager.o
 .text._ZNK2bn39sprite_affine_second_attributes_hbe_ptr14attributes_refEv
                0x0000000000000000       0x68 bn_hblank_effects_manager.o
 .text._ZN3_bn6assert9show_argsIJA39_cPKN2bn21affine_mat_attributesEA4_ciEEEvPKcS9_S9_iDpRKT_
                0x0000000000000000       0x64 bn_hblank_effects_manager.o
 .rodata._ZNK2bn37sprite_affine_mat_pc_register_hbe_ptr14attributes_refEv.str1.4
                0x0000000000000000       0x66 bn_hblank_effects_manager.o
 .text._ZNK2bn37sprite_affine_mat_pc_register_hbe_ptr14attributes_refEv
                0x0000000000000000       0x90 bn_hblank_effects_manager.o
 .rodata._ZNK2bn37sprite_affine_mat_pb_register_hbe_ptr14attributes_refEv.str1.4
                0x0000000000000000       0x2f bn_hblank_effects_manager.o
 .text._ZNK2bn37sprite_affine_mat_pb_register_hbe_ptr14attributes_refEv
                0x0000000000000000       0x90 bn_hblank_effects_manager.o
 .rodata._ZNK2bn37sprite_affine_mat_pd_register_hbe_ptr14attributes_refEv.str1.4
                0x0000000000000000       0x2f bn_hblank_effects_manager.o
 .text._ZNK2bn37sprite_affine_mat_pd_register_hbe_ptr14attributes_refEv
                0x0000000000000000       0x90 bn_hblank_effects_manager.o
 .rodata._ZNK2bn37sprite_affine_mat_pa_register_hbe_ptr14attributes_refEv.str1.4
                0x0000000000000000       0x2f bn_hblank_effects_manager.o
 .text._ZNK2bn37sprite_affine_mat_pa_register_hbe_ptr14attributes_refEv
                0x0000000000000000       0x90 bn_hblank_effects_manager.o
 .text._ZNK2bn36sprite_affine_mat_attributes_hbe_ptr14attributes_refEv
                0x0000000000000000       0x90 bn_hblank_effects_manager.o
 .text._ZN3_bn6assert9show_argsIJA39_cPKiA4_ciEEEvPKcS7_S7_iDpRKT_
                0x0000000000000000       0x64 bn_hblank_effects_manager.o
 .rodata._ZNK2bn29affine_bg_dy_register_hbe_ptr10values_refEv.str1.4
                0x0000000000000000       0x5e bn_hblank_effects_manager.o
 .text._ZNK2bn29affine_bg_dy_register_hbe_ptr10values_refEv
                0x0000000000000000       0x90 bn_hblank_effects_manager.o
 .rodata._ZNK2bn29affine_bg_dx_register_hbe_ptr10values_refEv.str1.4
                0x0000000000000000       0x27 bn_hblank_effects_manager.o
 .text._ZNK2bn29affine_bg_dx_register_hbe_ptr10values_refEv
                0x0000000000000000       0x90 bn_hblank_effects_manager.o
 .text._ZN3_bn6assert9show_argsIJA39_cPKsA4_ciEEEvPKcS7_S7_iDpRKT_
                0x0000000000000000       0x64 bn_hblank_effects_manager.o
 .rodata._ZNK2bn29affine_bg_pa_register_hbe_ptr10values_refEv.str1.4
                0x0000000000000000       0x27 bn_hblank_effects_manager.o
 .text._ZNK2bn29affine_bg_pa_register_hbe_ptr10values_refEv
                0x0000000000000000       0x8c bn_hblank_effects_manager.o
 .text._ZNK2bn37sprite_affine_mat_pa_register_hbe_ptr10values_refEv
                0x0000000000000000       0x8c bn_hblank_effects_manager.o
 .text._ZNK2bn37sprite_affine_mat_pc_register_hbe_ptr10values_refEv
                0x0000000000000000       0x8c bn_hblank_effects_manager.o
 .text._ZNK2bn37sprite_affine_mat_pb_register_hbe_ptr10values_refEv
                0x0000000000000000       0x8c bn_hblank_effects_manager.o
 .rodata._ZNK2bn29affine_bg_pd_register_hbe_ptr10values_refEv.str1.4
                0x0000000000000000       0x27 bn_hblank_effects_manager.o
 .text._ZNK2bn29affine_bg_pd_register_hbe_ptr10values_refEv
                0x0000000000000000       0x8c bn_hblank_effects_manager.o
 .text._ZNK2bn37sprite_affine_mat_pd_register_hbe_ptr10values_refEv
                0x0000000000000000       0x8c bn_hblank_effects_manager.o
 .rodata._ZNK2bn29affine_bg_pc_register_hbe_ptr10values_refEv.str1.4
                0x0000000000000000       0x27 bn_hblank_effects_manager.o
 .text._ZNK2bn29affine_bg_pc_register_hbe_ptr10values_refEv
                0x0000000000000000       0x8c bn_hblank_effects_manager.o
 .rodata._ZNK2bn29affine_bg_pb_register_hbe_ptr10values_refEv.str1.4
                0x0000000000000000       0x27 bn_hblank_effects_manager.o
 .text._ZNK2bn29affine_bg_pb_register_hbe_ptr10values_refEv
                0x0000000000000000       0x8c bn_hblank_effects_manager.o
 .text._ZN3_bn6assert9show_argsIJA39_cPKN2bn24affine_bg_mat_attributesEA4_ciEEEvPKcS9_S9_iDpRKT_
                0x0000000000000000       0x64 bn_hblank_effects_manager.o
 .text._ZNK2bn29affine_bg_pd_register_hbe_ptr14attributes_refEv
                0x0000000000000000       0x90 bn_hblank_effects_manager.o
 .text._ZNK2bn32affine_bg_mat_attributes_hbe_ptr14attributes_refEv
                0x0000000000000000       0x90 bn_hblank_effects_manager.o
 .text._ZNK2bn29affine_bg_pa_register_hbe_ptr14attributes_refEv
                0x0000000000000000       0x90 bn_hblank_effects_manager.o
 .text._ZNK2bn29affine_bg_pc_register_hbe_ptr14attributes_refEv
                0x0000000000000000       0x90 bn_hblank_effects_manager.o
 .text._ZNK2bn29affine_bg_dy_register_hbe_ptr14attributes_refEv
                0x0000000000000000       0x90 bn_hblank_effects_manager.o
 .text._ZNK2bn29affine_bg_dx_register_hbe_ptr14attributes_refEv
                0x0000000000000000       0x90 bn_hblank_effects_manager.o
 .text._ZNK2bn29affine_bg_pb_register_hbe_ptr14attributes_refEv
                0x0000000000000000       0x90 bn_hblank_effects_manager.o
 .text._ZN3_bn6assert9show_argsIJA39_cPKN2bn7fixed_tILi12EEEA4_ciEEEvPKcSA_SA_iDpRKT_
                0x0000000000000000       0x64 bn_hblank_effects_manager.o
 .text._ZNK2bn27regular_bg_position_hbe_ptr10deltas_refEv
                0x0000000000000000       0x68 bn_hblank_effects_manager.o
 .text._ZNK2bn23sprite_position_hbe_ptr10deltas_refEv
                0x0000000000000000       0x68 bn_hblank_effects_manager.o
 .text._ZNK2bn32affine_bg_pivot_position_hbe_ptr10deltas_refEv
                0x0000000000000000       0x68 bn_hblank_effects_manager.o
 .text._ZN3_bn6assert9show_argsIJA39_cPKN2bn20affine_bg_attributesEA4_ciEEEvPKcS9_S9_iDpRKT_
                0x0000000000000000       0x64 bn_hblank_effects_manager.o
 .text._ZNK2bn28affine_bg_attributes_hbe_ptr14attributes_refEv
                0x0000000000000000       0x68 bn_hblank_effects_manager.o
 .text._ZN3_bn6assert9show_argsIJA39_cPKN2bn21regular_bg_attributesEA4_ciEEEvPKcS9_S9_iDpRKT_
                0x0000000000000000       0x64 bn_hblank_effects_manager.o
 .text._ZNK2bn29regular_bg_attributes_hbe_ptr14attributes_refEv
                0x0000000000000000       0x64 bn_hblank_effects_manager.o
 .text._ZN3_bn6assert9show_argsIJA39_cPKN2bn4pairINS3_7fixed_tILi12EEES6_EEA4_ciEEEvPKcSC_SC_iDpRKT_
                0x0000000000000000       0x64 bn_hblank_effects_manager.o
 .text._ZNK2bn30rect_window_boundaries_hbe_ptr10deltas_refEv
                0x0000000000000000       0x68 bn_hblank_effects_manager.o
 .text._ZN3_bn6assert9show_argsIJA39_cPKN2bn17mosaic_attributesEA4_ciEEEvPKcS9_S9_iDpRKT_
                0x0000000000000000       0x64 bn_hblank_effects_manager.o
 .text._ZNK2bn25mosaic_attributes_hbe_ptr14attributes_refEv
                0x0000000000000000       0x68 bn_hblank_effects_manager.o
 .text._ZN3_bn6assert9show_argsIJA39_cPKbA4_ciEEEvPKcS7_S7_iDpRKT_
                0x0000000000000000       0x64 bn_hblank_effects_manager.o
 .text._ZNK2bn18green_swap_hbe_ptr10states_refEv
                0x0000000000000000       0x64 bn_hblank_effects_manager.o
 .text._ZN3_bn6assert9show_argsIJA39_cPKN2bn32blending_transparency_attributesEA4_ciEEEvPKcS9_S9_iDpRKT_
                0x0000000000000000       0x64 bn_hblank_effects_manager.o
 .text._ZNK2bn40blending_transparency_attributes_hbe_ptr14attributes_refEv
                0x0000000000000000       0x68 bn_hblank_effects_manager.o
 .text._ZN3_bn6assert9show_argsIJA39_cPKN2bn19blending_fade_alphaEA4_ciEEEvPKcS9_S9_iDpRKT_
                0x0000000000000000       0x64 bn_hblank_effects_manager.o
 .text._ZNK2bn27blending_fade_alpha_hbe_ptr10alphas_refEv
                0x0000000000000000       0x68 bn_hblank_effects_manager.o
 .text._ZNK2bn24bg_palette_color_hbe_ptr10colors_refEv
                0x0000000000000000       0x64 bn_hblank_effects_manager.o
 .text._ZNK2bn28sprite_palette_color_hbe_ptr10colors_refEv
                0x0000000000000000       0x64 bn_hblank_effects_manager.o
 .text._ZNK2bn37bg_palettes_transparent_color_hbe_ptr10colors_refEv
                0x0000000000000000       0x64 bn_hblank_effects_manager.o
 .text._ZN3_bn6assert9show_argsIJA21_cjA4_ciEEEvPKcS5_S5_iDpRKT_
                0x0000000000000000       0x64 bn_hblank_effects_manager.o
 .rodata._ZN2bn22hblank_effects_manager12_GLOBAL__N_17_createEPKviNS0_12handler_typeEb.str1.4
                0x0000000000000000      0x129 bn_hblank_effects_manager.o
 .text._ZN2bn22hblank_effects_manager12_GLOBAL__N_17_createEPKviNS0_12handler_typeEb
                0x0000000000000000      0x6c8 bn_hblank_effects_manager.o
 .rodata._ZN2bn22hblank_effects_manager12_GLOBAL__N_17_createEPKviNS0_12handler_typeEb
                0x0000000000000000       0xa4 bn_hblank_effects_manager.o
 .text._ZN3_bn6assert9show_argsIJA22_ciA4_ciEEEvPKcS5_S5_iDpRKT_
                0x0000000000000000       0x64 bn_hblank_effects_manager.o
 .text._ZN3_bn6assert9show_argsIJA23_ciA4_ciEEEvPKcS5_S5_iDpRKT_
                0x0000000000000000       0x64 bn_hblank_effects_manager.o
 .rodata._ZN2bn22hblank_effects_manager14set_values_refEiPKvi.str1.4
                0x0000000000000000       0x4b bn_hblank_effects_manager.o
 .text._ZN2bn22hblank_effects_manager14set_values_refEiPKvi
                0x0000000000000000       0x94 bn_hblank_effects_manager.o
 .rodata._ZN2bn36sprite_affine_mat_attributes_hbe_ptr18set_attributes_refERKNS_4spanIKNS_21affine_mat_attributesEEE.str1.4
                0x0000000000000000       0x13 bn_hblank_effects_manager.o
 .text._ZN2bn36sprite_affine_mat_attributes_hbe_ptr18set_attributes_refERKNS_4spanIKNS_21affine_mat_attributesEEE
                0x0000000000000000       0xb0 bn_hblank_effects_manager.o
 .text._ZN2bn32affine_bg_mat_attributes_hbe_ptr18set_attributes_refERKNS_4spanIKNS_24affine_bg_mat_attributesEEE
                0x0000000000000000      0x104 bn_hblank_effects_manager.o
 .rodata._ZN2bn22hblank_effects_manager6createEPKviiNS0_12handler_typeE.str1.4
                0x0000000000000000        0x7 bn_hblank_effects_manager.o
 .text._ZN2bn22hblank_effects_manager6createEPKviiNS0_12handler_typeE
                0x0000000000000000       0x58 bn_hblank_effects_manager.o
 .rodata._ZN2bn22hblank_effects_manager15create_optionalEPKviiNS0_12handler_typeE.str1.4
                0x0000000000000000       0x10 bn_hblank_effects_manager.o
 .text._ZN2bn22hblank_effects_manager15create_optionalEPKviiNS0_12handler_typeE
                0x0000000000000000       0x58 bn_hblank_effects_manager.o
 .text._ZN2bn18green_swap_hbe_ptr6createERKNS_4spanIKbEE
                0x0000000000000000       0x60 bn_hblank_effects_manager.o
 .text._ZN2bn37bg_palettes_transparent_color_hbe_ptr6createERKNS_4spanIKNS_5colorEEE
                0x0000000000000000       0x64 bn_hblank_effects_manager.o
 .text._ZN2bn25mosaic_attributes_hbe_ptr6createERKNS_4spanIKNS_17mosaic_attributesEEE
                0x0000000000000000       0x64 bn_hblank_effects_manager.o
 .text._ZN2bn30rect_window_boundaries_hbe_ptr17create_horizontalENS_11rect_windowERKNS_4spanIKNS_4pairINS_7fixed_tILi12EEES5_EEEE
                0x0000000000000000       0x6c bn_hblank_effects_manager.o
 .text._ZN2bn30rect_window_boundaries_hbe_ptr15create_verticalENS_11rect_windowERKNS_4spanIKNS_4pairINS_7fixed_tILi12EEES5_EEEE
                0x0000000000000000       0x6c bn_hblank_effects_manager.o
 .text._ZN2bn23sprite_position_hbe_ptr15create_verticalENS_10sprite_ptrERKNS_4spanIKNS_7fixed_tILi12EEEEE
                0x0000000000000000       0x70 bn_hblank_effects_manager.o
 .text._ZN2bn29regular_bg_attributes_hbe_ptr6createENS_14regular_bg_ptrERKNS_4spanIKNS_21regular_bg_attributesEEE
                0x0000000000000000       0x84 bn_hblank_effects_manager.o
 .text._ZN2bn40sprite_regular_second_attributes_hbe_ptr6createENS_10sprite_ptrERKNS_4spanIKNS_32sprite_regular_second_attributesEEE
                0x0000000000000000       0x70 bn_hblank_effects_manager.o
 .text._ZN2bn31sprite_third_attributes_hbe_ptr6createENS_10sprite_ptrERKNS_4spanIKNS_23sprite_third_attributesEEE
                0x0000000000000000       0x70 bn_hblank_effects_manager.o
 .text._ZN2bn23sprite_position_hbe_ptr17create_horizontalENS_10sprite_ptrERKNS_4spanIKNS_7fixed_tILi12EEEEE
                0x0000000000000000       0x70 bn_hblank_effects_manager.o
 .text._ZN2bn28affine_bg_attributes_hbe_ptr6createENS_13affine_bg_ptrERKNS_4spanIKNS_20affine_bg_attributesEEE
                0x0000000000000000       0x70 bn_hblank_effects_manager.o
 .text._ZN2bn39sprite_affine_second_attributes_hbe_ptr6createENS_10sprite_ptrERKNS_4spanIKNS_31sprite_affine_second_attributesEEE
                0x0000000000000000       0x70 bn_hblank_effects_manager.o
 .text._ZN2bn31sprite_first_attributes_hbe_ptr6createENS_10sprite_ptrERKNS_4spanIKNS_23sprite_first_attributesEEE
                0x0000000000000000       0x70 bn_hblank_effects_manager.o
 .text._ZN2bn32affine_bg_pivot_position_hbe_ptr17create_horizontalENS_13affine_bg_ptrERKNS_4spanIKNS_7fixed_tILi12EEEEE
                0x0000000000000000       0x70 bn_hblank_effects_manager.o
 .text._ZN2bn32affine_bg_pivot_position_hbe_ptr15create_verticalENS_13affine_bg_ptrERKNS_4spanIKNS_7fixed_tILi12EEEEE
                0x0000000000000000       0x70 bn_hblank_effects_manager.o
 .text._ZN2bn18green_swap_hbe_ptr15create_optionalERKNS_4spanIKbEE
                0x0000000000000000       0x6c bn_hblank_effects_manager.o
 .text._ZN2bn27regular_bg_position_hbe_ptr15create_verticalENS_14regular_bg_ptrERKNS_4spanIKNS_7fixed_tILi12EEEEE
                0x0000000000000000       0x70 bn_hblank_effects_manager.o
 .text._ZN2bn27regular_bg_position_hbe_ptr17create_horizontalENS_14regular_bg_ptrERKNS_4spanIKNS_7fixed_tILi12EEEEE
                0x0000000000000000       0x70 bn_hblank_effects_manager.o
 .text._ZN2bn29affine_bg_dx_register_hbe_ptr6createENS_13affine_bg_ptrERKNS_4spanIKNS_24affine_bg_mat_attributesEEE
                0x0000000000000000       0x88 bn_hblank_effects_manager.o
 .text._ZN2bn37sprite_affine_mat_pa_register_hbe_ptr6createENS_21sprite_affine_mat_ptrERKNS_4spanIKNS_21affine_mat_attributesEEE
                0x0000000000000000       0x8c bn_hblank_effects_manager.o
 .text._ZN2bn29affine_bg_pd_register_hbe_ptr6createENS_13affine_bg_ptrERKNS_4spanIKNS_24affine_bg_mat_attributesEEE
                0x0000000000000000       0x88 bn_hblank_effects_manager.o
 .text._ZN2bn29affine_bg_pd_register_hbe_ptr6createENS_13affine_bg_ptrERKNS_4spanIKsEE
                0x0000000000000000       0x70 bn_hblank_effects_manager.o
 .text._ZN2bn37sprite_affine_mat_pb_register_hbe_ptr6createENS_21sprite_affine_mat_ptrERKNS_4spanIKsEE
                0x0000000000000000       0x78 bn_hblank_effects_manager.o
 .text._ZN2bn37sprite_affine_mat_pb_register_hbe_ptr6createENS_21sprite_affine_mat_ptrERKNS_4spanIKNS_21affine_mat_attributesEEE
                0x0000000000000000       0x8c bn_hblank_effects_manager.o
 .text._ZN2bn37sprite_affine_mat_pd_register_hbe_ptr6createENS_21sprite_affine_mat_ptrERKNS_4spanIKsEE
                0x0000000000000000       0x78 bn_hblank_effects_manager.o
 .text._ZN2bn29affine_bg_dy_register_hbe_ptr6createENS_13affine_bg_ptrERKNS_4spanIKNS_24affine_bg_mat_attributesEEE
                0x0000000000000000       0x88 bn_hblank_effects_manager.o
 .text._ZN2bn29affine_bg_dy_register_hbe_ptr6createENS_13affine_bg_ptrERKNS_4spanIKiEE
                0x0000000000000000       0x70 bn_hblank_effects_manager.o
 .text._ZN2bn29affine_bg_pa_register_hbe_ptr6createENS_13affine_bg_ptrERKNS_4spanIKsEE
                0x0000000000000000       0x70 bn_hblank_effects_manager.o
 .text._ZN2bn29affine_bg_pb_register_hbe_ptr6createENS_13affine_bg_ptrERKNS_4spanIKNS_24affine_bg_mat_attributesEEE
                0x0000000000000000       0x88 bn_hblank_effects_manager.o
 .text._ZN2bn29affine_bg_pb_register_hbe_ptr6createENS_13affine_bg_ptrERKNS_4spanIKsEE
                0x0000000000000000       0x70 bn_hblank_effects_manager.o
 .text._ZN2bn29affine_bg_dx_register_hbe_ptr6createENS_13affine_bg_ptrERKNS_4spanIKiEE
                0x0000000000000000       0x70 bn_hblank_effects_manager.o
 .text._ZN2bn25mosaic_attributes_hbe_ptr15create_optionalERKNS_4spanIKNS_17mosaic_attributesEEE
                0x0000000000000000       0x74 bn_hblank_effects_manager.o
 .text._ZN2bn37sprite_affine_mat_pc_register_hbe_ptr6createENS_21sprite_affine_mat_ptrERKNS_4spanIKsEE
                0x0000000000000000       0x78 bn_hblank_effects_manager.o
 .text._ZN2bn29affine_bg_pa_register_hbe_ptr6createENS_13affine_bg_ptrERKNS_4spanIKNS_24affine_bg_mat_attributesEEE
                0x0000000000000000       0x88 bn_hblank_effects_manager.o
 .text._ZN2bn37sprite_affine_mat_pc_register_hbe_ptr6createENS_21sprite_affine_mat_ptrERKNS_4spanIKNS_21affine_mat_attributesEEE
                0x0000000000000000       0x8c bn_hblank_effects_manager.o
 .text._ZN2bn37sprite_affine_mat_pd_register_hbe_ptr6createENS_21sprite_affine_mat_ptrERKNS_4spanIKNS_21affine_mat_attributesEEE
                0x0000000000000000       0x8c bn_hblank_effects_manager.o
 .text._ZN2bn37sprite_affine_mat_pa_register_hbe_ptr6createENS_21sprite_affine_mat_ptrERKNS_4spanIKsEE
                0x0000000000000000       0x78 bn_hblank_effects_manager.o
 .text._ZN2bn29affine_bg_pc_register_hbe_ptr6createENS_13affine_bg_ptrERKNS_4spanIKNS_24affine_bg_mat_attributesEEE
                0x0000000000000000       0x88 bn_hblank_effects_manager.o
 .text._ZN2bn29affine_bg_pc_register_hbe_ptr6createENS_13affine_bg_ptrERKNS_4spanIKsEE
                0x0000000000000000       0x70 bn_hblank_effects_manager.o
 .text._ZN2bn37bg_palettes_transparent_color_hbe_ptr15create_optionalERKNS_4spanIKNS_5colorEEE
                0x0000000000000000       0x74 bn_hblank_effects_manager.o
 .rodata._ZN2bn40blending_transparency_attributes_hbe_ptr6createERKNS_4spanIKNS_32blending_transparency_attributesEEE.str1.4
                0x0000000000000000       0x32 bn_hblank_effects_manager.o
 .text._ZN2bn40blending_transparency_attributes_hbe_ptr6createERKNS_4spanIKNS_32blending_transparency_attributesEEE
                0x0000000000000000       0x8c bn_hblank_effects_manager.o
 .text._ZN2bn30rect_window_boundaries_hbe_ptr26create_horizontal_optionalENS_11rect_windowERKNS_4spanIKNS_4pairINS_7fixed_tILi12EEES5_EEEE
                0x0000000000000000       0x80 bn_hblank_effects_manager.o
 .text._ZN2bn30rect_window_boundaries_hbe_ptr24create_vertical_optionalENS_11rect_windowERKNS_4spanIKNS_4pairINS_7fixed_tILi12EEES5_EEEE
                0x0000000000000000       0x80 bn_hblank_effects_manager.o
 .text._ZN2bn40blending_transparency_attributes_hbe_ptr15create_optionalERKNS_4spanIKNS_32blending_transparency_attributesEEE
                0x0000000000000000       0x98 bn_hblank_effects_manager.o
 .text._ZN2bn39sprite_affine_second_attributes_hbe_ptr15create_optionalENS_10sprite_ptrERKNS_4spanIKNS_31sprite_affine_second_attributesEEE
                0x0000000000000000       0xb8 bn_hblank_effects_manager.o
 .text._ZN2bn23sprite_position_hbe_ptr24create_vertical_optionalENS_10sprite_ptrERKNS_4spanIKNS_7fixed_tILi12EEEEE
                0x0000000000000000       0xb8 bn_hblank_effects_manager.o
 .text._ZN2bn37sprite_affine_mat_pd_register_hbe_ptr15create_optionalENS_21sprite_affine_mat_ptrERKNS_4spanIKsEE
                0x0000000000000000       0xc0 bn_hblank_effects_manager.o
 .text._ZN2bn32affine_bg_pivot_position_hbe_ptr26create_horizontal_optionalENS_13affine_bg_ptrERKNS_4spanIKNS_7fixed_tILi12EEEEE
                0x0000000000000000       0xb8 bn_hblank_effects_manager.o
 .text._ZN2bn37sprite_affine_mat_pa_register_hbe_ptr15create_optionalENS_21sprite_affine_mat_ptrERKNS_4spanIKsEE
                0x0000000000000000       0xc0 bn_hblank_effects_manager.o
 .text._ZN2bn37sprite_affine_mat_pd_register_hbe_ptr15create_optionalENS_21sprite_affine_mat_ptrERKNS_4spanIKNS_21affine_mat_attributesEEE
                0x0000000000000000       0xd8 bn_hblank_effects_manager.o
 .text._ZN2bn37sprite_affine_mat_pa_register_hbe_ptr15create_optionalENS_21sprite_affine_mat_ptrERKNS_4spanIKNS_21affine_mat_attributesEEE
                0x0000000000000000       0xd8 bn_hblank_effects_manager.o
 .text._ZN2bn37sprite_affine_mat_pb_register_hbe_ptr15create_optionalENS_21sprite_affine_mat_ptrERKNS_4spanIKNS_21affine_mat_attributesEEE
                0x0000000000000000       0xd8 bn_hblank_effects_manager.o
 .text._ZN2bn27regular_bg_position_hbe_ptr24create_vertical_optionalENS_14regular_bg_ptrERKNS_4spanIKNS_7fixed_tILi12EEEEE
                0x0000000000000000       0xb8 bn_hblank_effects_manager.o
 .text._ZN2bn28affine_bg_attributes_hbe_ptr15create_optionalENS_13affine_bg_ptrERKNS_4spanIKNS_20affine_bg_attributesEEE
                0x0000000000000000       0xb8 bn_hblank_effects_manager.o
 .text._ZN2bn37sprite_affine_mat_pc_register_hbe_ptr15create_optionalENS_21sprite_affine_mat_ptrERKNS_4spanIKNS_21affine_mat_attributesEEE
                0x0000000000000000       0xd8 bn_hblank_effects_manager.o
 .text._ZN2bn36sprite_affine_mat_attributes_hbe_ptr15create_optionalERKNS_21sprite_affine_mat_ptrERKNS_4spanIKNS_21affine_mat_attributesEEE
                0x0000000000000000      0x40c bn_hblank_effects_manager.o
 .text._ZN2bn32affine_bg_pivot_position_hbe_ptr24create_vertical_optionalENS_13affine_bg_ptrERKNS_4spanIKNS_7fixed_tILi12EEEEE
                0x0000000000000000       0xb8 bn_hblank_effects_manager.o
 .text._ZN2bn31sprite_first_attributes_hbe_ptr15create_optionalENS_10sprite_ptrERKNS_4spanIKNS_23sprite_first_attributesEEE
                0x0000000000000000       0xb8 bn_hblank_effects_manager.o
 .text._ZN2bn37sprite_affine_mat_pb_register_hbe_ptr15create_optionalENS_21sprite_affine_mat_ptrERKNS_4spanIKsEE
                0x0000000000000000       0xc0 bn_hblank_effects_manager.o
 .text._ZN2bn23sprite_position_hbe_ptr26create_horizontal_optionalENS_10sprite_ptrERKNS_4spanIKNS_7fixed_tILi12EEEEE
                0x0000000000000000       0xb8 bn_hblank_effects_manager.o
 .text._ZN2bn37sprite_affine_mat_pc_register_hbe_ptr15create_optionalENS_21sprite_affine_mat_ptrERKNS_4spanIKsEE
                0x0000000000000000       0xc0 bn_hblank_effects_manager.o
 .text._ZN2bn29regular_bg_attributes_hbe_ptr15create_optionalENS_14regular_bg_ptrERKNS_4spanIKNS_21regular_bg_attributesEEE
                0x0000000000000000       0xcc bn_hblank_effects_manager.o
 .text._ZN2bn31sprite_third_attributes_hbe_ptr15create_optionalENS_10sprite_ptrERKNS_4spanIKNS_23sprite_third_attributesEEE
                0x0000000000000000       0xb8 bn_hblank_effects_manager.o
 .text._ZN2bn40sprite_regular_second_attributes_hbe_ptr15create_optionalENS_10sprite_ptrERKNS_4spanIKNS_32sprite_regular_second_attributesEEE
                0x0000000000000000       0xb8 bn_hblank_effects_manager.o
 .text._ZN2bn27regular_bg_position_hbe_ptr26create_horizontal_optionalENS_14regular_bg_ptrERKNS_4spanIKNS_7fixed_tILi12EEEEE
                0x0000000000000000       0xb8 bn_hblank_effects_manager.o
 .text._ZN2bn29affine_bg_dx_register_hbe_ptr15create_optionalENS_13affine_bg_ptrERKNS_4spanIKNS_24affine_bg_mat_attributesEEE
                0x0000000000000000       0xd4 bn_hblank_effects_manager.o
 .text._ZN2bn29affine_bg_pc_register_hbe_ptr15create_optionalENS_13affine_bg_ptrERKNS_4spanIKNS_24affine_bg_mat_attributesEEE
                0x0000000000000000       0xd4 bn_hblank_effects_manager.o
 .text._ZN2bn29affine_bg_pb_register_hbe_ptr15create_optionalENS_13affine_bg_ptrERKNS_4spanIKsEE
                0x0000000000000000       0xb8 bn_hblank_effects_manager.o
 .text._ZN2bn29affine_bg_dy_register_hbe_ptr15create_optionalENS_13affine_bg_ptrERKNS_4spanIKNS_24affine_bg_mat_attributesEEE
                0x0000000000000000       0xd4 bn_hblank_effects_manager.o
 .text._ZN2bn29affine_bg_pd_register_hbe_ptr15create_optionalENS_13affine_bg_ptrERKNS_4spanIKNS_24affine_bg_mat_attributesEEE
                0x0000000000000000       0xd4 bn_hblank_effects_manager.o
 .text._ZN2bn29affine_bg_pd_register_hbe_ptr15create_optionalENS_13affine_bg_ptrERKNS_4spanIKsEE
                0x0000000000000000       0xb8 bn_hblank_effects_manager.o
 .text._ZN2bn29affine_bg_dx_register_hbe_ptr15create_optionalENS_13affine_bg_ptrERKNS_4spanIKiEE
                0x0000000000000000       0xb8 bn_hblank_effects_manager.o
 .text._ZN2bn29affine_bg_pb_register_hbe_ptr15create_optionalENS_13affine_bg_ptrERKNS_4spanIKNS_24affine_bg_mat_attributesEEE
                0x0000000000000000       0xd4 bn_hblank_effects_manager.o
 .text._ZN2bn29affine_bg_pa_register_hbe_ptr15create_optionalENS_13affine_bg_ptrERKNS_4spanIKsEE
                0x0000000000000000       0xb8 bn_hblank_effects_manager.o
 .text._ZN2bn29affine_bg_pa_register_hbe_ptr15create_optionalENS_13affine_bg_ptrERKNS_4spanIKNS_24affine_bg_mat_attributesEEE
                0x0000000000000000       0xd4 bn_hblank_effects_manager.o
 .text._ZN2bn32affine_bg_mat_attributes_hbe_ptr15create_optionalERKNS_13affine_bg_ptrERKNS_4spanIKNS_24affine_bg_mat_attributesEEE
                0x0000000000000000      0x500 bn_hblank_effects_manager.o
 .text._ZN2bn29affine_bg_pc_register_hbe_ptr15create_optionalENS_13affine_bg_ptrERKNS_4spanIKsEE
                0x0000000000000000       0xb8 bn_hblank_effects_manager.o
 .text._ZN2bn29affine_bg_dy_register_hbe_ptr15create_optionalENS_13affine_bg_ptrERKNS_4spanIKiEE
                0x0000000000000000       0xb8 bn_hblank_effects_manager.o
 .rodata._ZN2bn24bg_palette_color_hbe_ptr6createENS_14bg_palette_ptrEiRKNS_4spanIKNS_5colorEEE.str1.4
                0x0000000000000000       0x76 bn_hblank_effects_manager.o
 .text._ZN2bn24bg_palette_color_hbe_ptr6createENS_14bg_palette_ptrEiRKNS_4spanIKNS_5colorEEE
                0x0000000000000000       0xcc bn_hblank_effects_manager.o
 .rodata._ZN2bn28sprite_palette_color_hbe_ptr6createENS_18sprite_palette_ptrEiRKNS_4spanIKNS_5colorEEE.str1.4
                0x0000000000000000       0x26 bn_hblank_effects_manager.o
 .text._ZN2bn28sprite_palette_color_hbe_ptr6createENS_18sprite_palette_ptrEiRKNS_4spanIKNS_5colorEEE
                0x0000000000000000       0xcc bn_hblank_effects_manager.o
 .text._ZN2bn28sprite_palette_color_hbe_ptr14set_colors_refERKNS_4spanIKNS_5colorEEE
                0x0000000000000000       0xa0 bn_hblank_effects_manager.o
 .text._ZN2bn37bg_palettes_transparent_color_hbe_ptr14set_colors_refERKNS_4spanIKNS_5colorEEE
                0x0000000000000000       0xa0 bn_hblank_effects_manager.o
 .text._ZN2bn23sprite_position_hbe_ptr14set_deltas_refERKNS_4spanIKNS_7fixed_tILi12EEEEE
                0x0000000000000000       0xa0 bn_hblank_effects_manager.o
 .text._ZN2bn18green_swap_hbe_ptr14set_states_refERKNS_4spanIKbEE
                0x0000000000000000       0x9c bn_hblank_effects_manager.o
 .text._ZN2bn32affine_bg_pivot_position_hbe_ptr14set_deltas_refERKNS_4spanIKNS_7fixed_tILi12EEEEE
                0x0000000000000000       0xa0 bn_hblank_effects_manager.o
 .text._ZN2bn29regular_bg_attributes_hbe_ptr18set_attributes_refERKNS_4spanIKNS_21regular_bg_attributesEEE
                0x0000000000000000       0xb4 bn_hblank_effects_manager.o
 .text._ZN2bn27regular_bg_position_hbe_ptr14set_deltas_refERKNS_4spanIKNS_7fixed_tILi12EEEEE
                0x0000000000000000       0xa0 bn_hblank_effects_manager.o
 .text._ZN2bn27blending_fade_alpha_hbe_ptr14set_alphas_refERKNS_4spanIKNS_19blending_fade_alphaEEE
                0x0000000000000000       0xa0 bn_hblank_effects_manager.o
 .text._ZN2bn28affine_bg_attributes_hbe_ptr18set_attributes_refERKNS_4spanIKNS_20affine_bg_attributesEEE
                0x0000000000000000       0xa0 bn_hblank_effects_manager.o
 .text._ZN2bn39sprite_affine_second_attributes_hbe_ptr18set_attributes_refERKNS_4spanIKNS_31sprite_affine_second_attributesEEE
                0x0000000000000000       0xa0 bn_hblank_effects_manager.o
 .text._ZN2bn31sprite_third_attributes_hbe_ptr18set_attributes_refERKNS_4spanIKNS_23sprite_third_attributesEEE
                0x0000000000000000       0xa0 bn_hblank_effects_manager.o
 .text._ZN2bn40sprite_regular_second_attributes_hbe_ptr18set_attributes_refERKNS_4spanIKNS_32sprite_regular_second_attributesEEE
                0x0000000000000000       0xa0 bn_hblank_effects_manager.o
 .text._ZN2bn31sprite_first_attributes_hbe_ptr18set_attributes_refERKNS_4spanIKNS_23sprite_first_attributesEEE
                0x0000000000000000       0xa0 bn_hblank_effects_manager.o
 .text._ZN2bn30rect_window_boundaries_hbe_ptr14set_deltas_refERKNS_4spanIKNS_4pairINS_7fixed_tILi12EEES4_EEEE
                0x0000000000000000       0xa0 bn_hblank_effects_manager.o
 .text._ZN2bn24bg_palette_color_hbe_ptr14set_colors_refERKNS_4spanIKNS_5colorEEE
                0x0000000000000000       0xa0 bn_hblank_effects_manager.o
 .text._ZN2bn25mosaic_attributes_hbe_ptr18set_attributes_refERKNS_4spanIKNS_17mosaic_attributesEEE
                0x0000000000000000       0xa0 bn_hblank_effects_manager.o
 .text._ZN2bn40blending_transparency_attributes_hbe_ptr18set_attributes_refERKNS_4spanIKNS_32blending_transparency_attributesEEE
                0x0000000000000000       0xa0 bn_hblank_effects_manager.o
 .text._ZN2bn24bg_palette_color_hbe_ptr15create_optionalENS_14bg_palette_ptrEiRKNS_4spanIKNS_5colorEEE
                0x0000000000000000      0x11c bn_hblank_effects_manager.o
 .text._ZN2bn28sprite_palette_color_hbe_ptr15create_optionalENS_18sprite_palette_ptrEiRKNS_4spanIKNS_5colorEEE
                0x0000000000000000      0x11c bn_hblank_effects_manager.o
 .text._ZN2bn37sprite_affine_mat_pa_register_hbe_ptr18set_attributes_refERKNS_4spanIKNS_21affine_mat_attributesEEE
                0x0000000000000000       0xe0 bn_hblank_effects_manager.o
 .text._ZN2bn37sprite_affine_mat_pb_register_hbe_ptr18set_attributes_refERKNS_4spanIKNS_21affine_mat_attributesEEE
                0x0000000000000000       0xe0 bn_hblank_effects_manager.o
 .text._ZN2bn37sprite_affine_mat_pd_register_hbe_ptr14set_values_refERKNS_4spanIKsEE
                0x0000000000000000       0xc4 bn_hblank_effects_manager.o
 .text._ZN2bn29affine_bg_dx_register_hbe_ptr14set_values_refERKNS_4spanIKiEE
                0x0000000000000000       0xc4 bn_hblank_effects_manager.o
 .text._ZN2bn29affine_bg_dy_register_hbe_ptr18set_attributes_refERKNS_4spanIKNS_24affine_bg_mat_attributesEEE
                0x0000000000000000       0xe0 bn_hblank_effects_manager.o
 .text._ZN2bn37sprite_affine_mat_pc_register_hbe_ptr18set_attributes_refERKNS_4spanIKNS_21affine_mat_attributesEEE
                0x0000000000000000       0xe0 bn_hblank_effects_manager.o
 .text._ZN2bn29affine_bg_pc_register_hbe_ptr14set_values_refERKNS_4spanIKsEE
                0x0000000000000000       0xc4 bn_hblank_effects_manager.o
 .text._ZN2bn37sprite_affine_mat_pc_register_hbe_ptr14set_values_refERKNS_4spanIKsEE
                0x0000000000000000       0xc4 bn_hblank_effects_manager.o
 .text._ZN2bn29affine_bg_pd_register_hbe_ptr18set_attributes_refERKNS_4spanIKNS_24affine_bg_mat_attributesEEE
                0x0000000000000000       0xe0 bn_hblank_effects_manager.o
 .text._ZN2bn29affine_bg_dy_register_hbe_ptr14set_values_refERKNS_4spanIKiEE
                0x0000000000000000       0xc4 bn_hblank_effects_manager.o
 .text._ZN2bn29affine_bg_pa_register_hbe_ptr14set_values_refERKNS_4spanIKsEE
                0x0000000000000000       0xc4 bn_hblank_effects_manager.o
 .text._ZN2bn29affine_bg_pd_register_hbe_ptr14set_values_refERKNS_4spanIKsEE
                0x0000000000000000       0xc4 bn_hblank_effects_manager.o
 .text._ZN2bn29affine_bg_pa_register_hbe_ptr18set_attributes_refERKNS_4spanIKNS_24affine_bg_mat_attributesEEE
                0x0000000000000000       0xe0 bn_hblank_effects_manager.o
 .text._ZN2bn29affine_bg_pc_register_hbe_ptr18set_attributes_refERKNS_4spanIKNS_24affine_bg_mat_attributesEEE
                0x0000000000000000       0xe0 bn_hblank_effects_manager.o
 .text._ZN2bn37sprite_affine_mat_pa_register_hbe_ptr14set_values_refERKNS_4spanIKsEE
                0x0000000000000000       0xc4 bn_hblank_effects_manager.o
 .text._ZN2bn37sprite_affine_mat_pd_register_hbe_ptr18set_attributes_refERKNS_4spanIKNS_21affine_mat_attributesEEE
                0x0000000000000000       0xe0 bn_hblank_effects_manager.o
 .text._ZN2bn37sprite_affine_mat_pb_register_hbe_ptr14set_values_refERKNS_4spanIKsEE
                0x0000000000000000       0xc4 bn_hblank_effects_manager.o
 .text._ZN2bn29affine_bg_dx_register_hbe_ptr18set_attributes_refERKNS_4spanIKNS_24affine_bg_mat_attributesEEE
                0x0000000000000000       0xe0 bn_hblank_effects_manager.o
 .text._ZN2bn29affine_bg_pb_register_hbe_ptr18set_attributes_refERKNS_4spanIKNS_24affine_bg_mat_attributesEEE
                0x0000000000000000       0xe0 bn_hblank_effects_manager.o
 .text._ZN2bn29affine_bg_pb_register_hbe_ptr14set_values_refERKNS_4spanIKsEE
                0x0000000000000000       0xc4 bn_hblank_effects_manager.o
 .rodata._ZN2bn27blending_fade_alpha_hbe_ptr6createERKNS_4spanIKNS_19blending_fade_alphaEEE.str1.4
                0x0000000000000000       0x25 bn_hblank_effects_manager.o
 .text._ZN2bn27blending_fade_alpha_hbe_ptr6createERKNS_4spanIKNS_19blending_fade_alphaEEE
                0x0000000000000000       0x98 bn_hblank_effects_manager.o
 .text._ZN2bn27blending_fade_alpha_hbe_ptr15create_optionalERKNS_4spanIKNS_19blending_fade_alphaEEE
                0x0000000000000000       0xa4 bn_hblank_effects_manager.o
 .text._ZN2bn36sprite_affine_mat_attributes_hbe_ptr6createERKNS_21sprite_affine_mat_ptrERKNS_4spanIKNS_21affine_mat_attributesEEE
                0x0000000000000000      0x2d0 bn_hblank_effects_manager.o
 .text._ZN2bn32affine_bg_mat_attributes_hbe_ptr6createERKNS_13affine_bg_ptrERKNS_4spanIKNS_24affine_bg_mat_attributesEEE
                0x0000000000000000      0x380 bn_hblank_effects_manager.o
 .text._ZN3_bn6assert9show_argsIJA26_cjA4_ciEEEvPKcS5_S5_iDpRKT_
                0x0000000000000000       0x64 bn_hblank_effects_manager.o
 .rodata._ZNK2bn4iany12type_managerINS_17sprite_shape_sizeEE7move_toERS0_S4_.str1.4
                0x0000000000000000       0x64 bn_hblank_effects_manager.o
 .text._ZNK2bn4iany12type_managerINS_17sprite_shape_sizeEE7move_toERS0_S4_
                0x0000000000000000       0xd8 bn_hblank_effects_manager.o
 .rodata._ZNK2bn4iany12type_managerINS_17sprite_shape_sizeEE7copy_toERKS0_RS0_.str1.4
                0x0000000000000000        0x8 bn_hblank_effects_manager.o
 .text._ZNK2bn4iany12type_managerINS_17sprite_shape_sizeEE7copy_toERKS0_RS0_
                0x0000000000000000       0xb8 bn_hblank_effects_manager.o
 .text._ZNK2bn4iany12type_managerINS_35sprite_second_attributes_last_valueEE7move_toERS0_S4_
                0x0000000000000000       0xd8 bn_hblank_effects_manager.o
 .text._ZNK2bn4iany12type_managerINS_35sprite_second_attributes_last_valueEE7copy_toERKS0_RS0_
                0x0000000000000000       0xb8 bn_hblank_effects_manager.o
 .text._ZNK2bn4iany12type_managerINS_35sprite_first_attributes_hbe_handler15last_value_typeEE7move_toERS0_S5_
                0x0000000000000000       0xdc bn_hblank_effects_manager.o
 .text._ZNK2bn4iany12type_managerINS_35sprite_first_attributes_hbe_handler15last_value_typeEE7copy_toERKS0_RS0_
                0x0000000000000000       0xbc bn_hblank_effects_manager.o
 .text._ZNK2bn4iany12type_managerINS_45affine_bg_pivot_vertical_position_hbe_handler15last_value_typeEE7move_toERS0_S5_
                0x0000000000000000       0xd8 bn_hblank_effects_manager.o
 .text._ZNK2bn4iany12type_managerINS_45affine_bg_pivot_vertical_position_hbe_handler15last_value_typeEE7copy_toERKS0_RS0_
                0x0000000000000000       0xb8 bn_hblank_effects_manager.o
 .text._ZNK2bn4iany12type_managerINS_47affine_bg_pivot_horizontal_position_hbe_handler15last_value_typeEE7move_toERS0_S5_
                0x0000000000000000       0xd8 bn_hblank_effects_manager.o
 .text._ZNK2bn4iany12type_managerINS_47affine_bg_pivot_horizontal_position_hbe_handler15last_value_typeEE7copy_toERKS0_RS0_
                0x0000000000000000       0xb8 bn_hblank_effects_manager.o
 .text._ZNK2bn4iany12type_managerIiE7move_toERS0_S3_
                0x0000000000000000       0xd8 bn_hblank_effects_manager.o
 .text._ZNK2bn4iany12type_managerIiE7copy_toERKS0_RS0_
                0x0000000000000000       0xb8 bn_hblank_effects_manager.o
 .text._ZNK2bn4iany12type_managerINS_32affine_bg_attributes_hbe_handler15last_value_typeEE7move_toERS0_S5_
                0x0000000000000000       0xd8 bn_hblank_effects_manager.o
 .text._ZNK2bn4iany12type_managerINS_32affine_bg_attributes_hbe_handler15last_value_typeEE7copy_toERKS0_RS0_
                0x0000000000000000       0xb8 bn_hblank_effects_manager.o
 .text._ZNK2bn4iany12type_managerINS_33regular_bg_attributes_hbe_handler15last_value_typeEE7move_toERS0_S5_
                0x0000000000000000       0xdc bn_hblank_effects_manager.o
 .text._ZNK2bn4iany12type_managerINS_33regular_bg_attributes_hbe_handler15last_value_typeEE7copy_toERKS0_RS0_
                0x0000000000000000       0xbc bn_hblank_effects_manager.o
 .text._ZNK2bn4iany12type_managerINS_4pairIiiEEE7move_toERS0_S5_
                0x0000000000000000       0xd8 bn_hblank_effects_manager.o
 .text._ZNK2bn4iany12type_managerINS_4pairIiiEEE7copy_toERKS0_RS0_
                0x0000000000000000       0xb8 bn_hblank_effects_manager.o
 .rodata._ZTVN2bn4iany12type_managerINS_4pairIiiEEEE
                0x0000000000000000       0x24 bn_hblank_effects_manager.o
 .rodata._ZTVN2bn4iany12type_managerINS_33regular_bg_attributes_hbe_handler15last_value_typeEEE
                0x0000000000000000       0x24 bn_hblank_effects_manager.o
 .rodata._ZTVN2bn4iany12type_managerINS_32affine_bg_attributes_hbe_handler15last_value_typeEEE
                0x0000000000000000       0x24 bn_hblank_effects_manager.o
 .rodata._ZTVN2bn4iany12type_managerIiEE
                0x0000000000000000       0x24 bn_hblank_effects_manager.o
 .rodata._ZTVN2bn4iany12type_managerINS_47affine_bg_pivot_horizontal_position_hbe_handler15last_value_typeEEE
                0x0000000000000000       0x24 bn_hblank_effects_manager.o
 .rodata._ZTVN2bn4iany12type_managerINS_45affine_bg_pivot_vertical_position_hbe_handler15last_value_typeEEE
                0x0000000000000000       0x24 bn_hblank_effects_manager.o
 .rodata._ZTVN2bn4iany12type_managerINS_35sprite_first_attributes_hbe_handler15last_value_typeEEE
                0x0000000000000000       0x24 bn_hblank_effects_manager.o
 .rodata._ZTVN2bn4iany12type_managerINS_35sprite_second_attributes_last_valueEEE
                0x0000000000000000       0x24 bn_hblank_effects_manager.o
 .rodata._ZTVN2bn4iany12type_managerINS_17sprite_shape_sizeEEE
                0x0000000000000000       0x24 bn_hblank_effects_manager.o
 .group         0x0000000000000000        0xc bn_hdma_manager.o
 .text          0x0000000000000000        0x0 bn_hdma_manager.o
 .data          0x0000000000000000        0x0 bn_hdma_manager.o
 .bss           0x0000000000000000        0x0 bn_hdma_manager.o
 .text._ZN2bn4hdma7runningEv
                0x0000000000000000       0x28 bn_hdma_manager.o
 .text._ZN2bn4hdma4stopEv
                0x0000000000000000       0x28 bn_hdma_manager.o
 .text._ZN2bn4hdma21high_priority_runningEv
                0x0000000000000000       0x28 bn_hdma_manager.o
 .text._ZN2bn4hdma18high_priority_stopEv
                0x0000000000000000       0x28 bn_hdma_manager.o
 .text._ZN2bn12hdma_manager6enableEv
                0x0000000000000000       0xd0 bn_hdma_manager.o
 .text._ZN2bn12hdma_manager20low_priority_runningEv
                0x0000000000000000       0x28 bn_hdma_manager.o
 .text._ZN2bn12hdma_manager18low_priority_startERKtiRt
                0x0000000000000000       0x30 bn_hdma_manager.o
 .text._ZN2bn12hdma_manager17low_priority_stopEv
                0x0000000000000000       0x28 bn_hdma_manager.o
 .text._ZN2bn12hdma_manager21high_priority_runningEv
                0x0000000000000000       0x28 bn_hdma_manager.o
 .text._ZN2bn12hdma_manager19high_priority_startERKtiRt
                0x0000000000000000       0x30 bn_hdma_manager.o
 .text._ZN2bn12hdma_manager18high_priority_stopEv
                0x0000000000000000       0x28 bn_hdma_manager.o
 .text._ZN3_bn6assert9show_argsIA19_ciEEvPKcS4_S4_iRKT_RKT0_
                0x0000000000000000       0x58 bn_hdma_manager.o
 .rodata._ZN2bn4hdma5startERKtiRt.str1.4
                0x0000000000000000       0x3b bn_hdma_manager.o
 .text._ZN2bn4hdma5startERKtiRt
                0x0000000000000000       0x5c bn_hdma_manager.o
 .rodata._ZN2bn4hdma19high_priority_startERKtiRt.str1.4
                0x0000000000000000       0x14 bn_hdma_manager.o
 .text._ZN2bn4hdma19high_priority_startERKtiRt
                0x0000000000000000       0x60 bn_hdma_manager.o
 .group         0x0000000000000000        0xc bn_keypad_manager.o
 .group         0x0000000000000000        0xc bn_keypad_manager.o
 .group         0x0000000000000000        0xc bn_keypad_manager.o
 .group         0x0000000000000000        0xc bn_keypad_manager.o
 .text          0x0000000000000000        0x0 bn_keypad_manager.o
 .data          0x0000000000000000        0x0 bn_keypad_manager.o
 .bss           0x0000000000000000        0x0 bn_keypad_manager.o
 .text._ZN2bn6keypad4heldENS0_8key_typeE
                0x0000000000000000       0x10 bn_keypad_manager.o
 .text._ZN2bn6keypad7pressedENS0_8key_typeE
                0x0000000000000000       0x10 bn_keypad_manager.o
 .text._ZN2bn6keypad8releasedENS0_8key_typeE
                0x0000000000000000       0x10 bn_keypad_manager.o
 .text._ZN2bn6keypad6a_heldEv
                0x0000000000000000       0x10 bn_keypad_manager.o
 .text._ZN2bn6keypad9a_pressedEv
                0x0000000000000000       0x10 bn_keypad_manager.o
 .text._ZN2bn6keypad10a_releasedEv
                0x0000000000000000       0x10 bn_keypad_manager.o
 .text._ZN2bn6keypad9b_pressedEv
                0x0000000000000000       0x10 bn_keypad_manager.o
 .text._ZN2bn6keypad10b_releasedEv
                0x0000000000000000       0x10 bn_keypad_manager.o
 .text._ZN2bn6keypad11select_heldEv
                0x0000000000000000       0x10 bn_keypad_manager.o
 .text._ZN2bn6keypad14select_pressedEv
                0x0000000000000000       0x10 bn_keypad_manager.o
 .text._ZN2bn6keypad15select_releasedEv
                0x0000000000000000       0x10 bn_keypad_manager.o
 .text._ZN2bn6keypad10start_heldEv
                0x0000000000000000       0x10 bn_keypad_manager.o
 .text._ZN2bn6keypad13start_pressedEv
                0x0000000000000000       0x10 bn_keypad_manager.o
 .text._ZN2bn6keypad14start_releasedEv
                0x0000000000000000       0x10 bn_keypad_manager.o
 .text._ZN2bn6keypad13right_pressedEv
                0x0000000000000000       0x10 bn_keypad_manager.o
 .text._ZN2bn6keypad14right_releasedEv
                0x0000000000000000       0x10 bn_keypad_manager.o
 .text._ZN2bn6keypad12left_pressedEv
                0x0000000000000000       0x10 bn_keypad_manager.o
 .text._ZN2bn6keypad13left_releasedEv
                0x0000000000000000       0x10 bn_keypad_manager.o
 .text._ZN2bn6keypad10up_pressedEv
                0x0000000000000000       0x10 bn_keypad_manager.o
 .text._ZN2bn6keypad11up_releasedEv
                0x0000000000000000       0x10 bn_keypad_manager.o
 .text._ZN2bn6keypad12down_pressedEv
                0x0000000000000000       0x10 bn_keypad_manager.o
 .text._ZN2bn6keypad13down_releasedEv
                0x0000000000000000       0x10 bn_keypad_manager.o
 .text._ZN2bn6keypad6r_heldEv
                0x0000000000000000       0x10 bn_keypad_manager.o
 .text._ZN2bn6keypad9r_pressedEv
                0x0000000000000000       0x10 bn_keypad_manager.o
 .text._ZN2bn6keypad10r_releasedEv
                0x0000000000000000       0x10 bn_keypad_manager.o
 .text._ZN2bn6keypad6l_heldEv
                0x0000000000000000       0x10 bn_keypad_manager.o
 .text._ZN2bn6keypad9l_pressedEv
                0x0000000000000000       0x10 bn_keypad_manager.o
 .text._ZN2bn6keypad10l_releasedEv
                0x0000000000000000       0x10 bn_keypad_manager.o
 .text._ZN2bn6keypad8any_heldEv
                0x0000000000000000       0x10 bn_keypad_manager.o
 .text._ZN2bn6keypad11any_pressedEv
                0x0000000000000000       0x10 bn_keypad_manager.o
 .text._ZN2bn6keypad12any_releasedEv
                0x0000000000000000       0x10 bn_keypad_manager.o
 .text._ZN2bn14keypad_manager4heldENS_6keypad8key_typeE
                0x0000000000000000       0x10 bn_keypad_manager.o
 .text._ZN2bn14keypad_manager7pressedENS_6keypad8key_typeE
                0x0000000000000000       0x10 bn_keypad_manager.o
 .text._ZN2bn14keypad_manager8releasedENS_6keypad8key_typeE
                0x0000000000000000       0x10 bn_keypad_manager.o
 .text._ZN2bn14keypad_manager8any_heldEv
                0x0000000000000000       0x10 bn_keypad_manager.o
 .text._ZN2bn14keypad_manager11any_pressedEv
                0x0000000000000000       0x10 bn_keypad_manager.o
 .text._ZN2bn14keypad_manager12any_releasedEv
                0x0000000000000000       0x10 bn_keypad_manager.o
 .text._ZN3_bn6assert9show_argsIJA12_ciA4_ciEEEvPKcS5_S5_iDpRKT_
                0x0000000000000000       0x6c bn_keypad_manager.o
 .rodata._ZN2bn14keypad_manager13set_interruptERKNS_4spanIKNS_6keypad8key_typeEEE.str1.4
                0x0000000000000000       0x30 bn_keypad_manager.o
 .text._ZN2bn14keypad_manager13set_interruptERKNS_4spanIKNS_6keypad8key_typeEEE
                0x0000000000000000       0x4c bn_keypad_manager.o
 .group         0x0000000000000000        0xc bn_link_manager.o
 .group         0x0000000000000000        0xc bn_link_manager.o
 .group         0x0000000000000000        0xc bn_link_manager.o
 .group         0x0000000000000000        0xc bn_link_manager.o
 .group         0x0000000000000000        0xc bn_link_manager.o
 .group         0x0000000000000000        0xc bn_link_manager.o
 .text          0x0000000000000000        0x0 bn_link_manager.o
 .data          0x0000000000000000        0x0 bn_link_manager.o
 .bss           0x0000000000000000        0x0 bn_link_manager.o
 .text._ZN2bn4link10deactivateEv
                0x0000000000000000        0xc bn_link_manager.o
 .text._ZN2bn12link_manager4sendEi
                0x0000000000000000       0x10 bn_link_manager.o
 .text._ZN2bn12link_manager10deactivateEv
                0x0000000000000000        0xc bn_link_manager.o
 .text._ZN2bn12link_manager6enableEv
                0x0000000000000000       0x18 bn_link_manager.o
 .text._ZN3_bn6assert9show_argsIA13_ciEEvPKcS4_S4_iRKT_RKT0_
                0x0000000000000000       0x58 bn_link_manager.o
 .text._ZN3_bn6assert9show_argsIA15_ciEEvPKcS4_S4_iRKT_RKT0_
                0x0000000000000000       0x58 bn_link_manager.o
 .text._ZN3_bn6assert9show_argsIA28_ciEEvPKcS4_S4_iRKT_RKT0_
                0x0000000000000000       0x58 bn_link_manager.o
 .text._ZN3_bn6assert9show_argsIJA23_ciA4_ciEEEvPKcS5_S5_iDpRKT_
                0x0000000000000000       0x6c bn_link_manager.o
 .text._ZN3_bn6assert9show_argsIA23_ciEEvPKcS4_S4_iRKT_RKT0_
                0x0000000000000000       0x58 bn_link_manager.o
 .rodata._ZN2bn4link4sendEi.str1.4
                0x0000000000000000       0x5b bn_link_manager.o
 .text._ZN2bn4link4sendEi
                0x0000000000000000       0x40 bn_link_manager.o
 .text._ZN3_bn6assert9show_argsIA15_cEEvPKcS4_S4_iRKT_
                0x0000000000000000       0x50 bn_link_manager.o
 .rodata._ZN2bn12link_manager7receiveEv.str1.4
                0x0000000000000000      0x147 bn_link_manager.o
 .text._ZN2bn12link_manager7receiveEv
                0x0000000000000000      0x168 bn_link_manager.o
 .text._ZN2bn4link7receiveEv
                0x0000000000000000       0x10 bn_link_manager.o
 .text          0x0000000000000000        0x0 bn_log.o
 .data          0x0000000000000000        0x0 bn_log.o
 .bss           0x0000000000000000        0x0 bn_log.o
 .group         0x0000000000000000        0xc bn_math.o
 .text          0x0000000000000000        0x0 bn_math.o
 .data          0x0000000000000000        0x0 bn_math.o
 .bss           0x0000000000000000        0x0 bn_math.o
 .text._ZN3_bn9sqrt_implEi
                0x0000000000000000       0x18 bn_math.o
 .text._ZN3_bn6assert9show_argsIA12_ciEEvPKcS4_S4_iRKT_RKT0_
                0x0000000000000000       0x58 bn_math.o
 .rodata._ZN2bn5atan2Eii.str1.4
                0x0000000000000000       0x64 bn_math.o
 .text._ZN2bn5atan2Eii
                0x0000000000000000       0x84 bn_math.o
 .debug_info    0x0000000000000000     0x3c2f bn_math.o
 .debug_abbrev  0x0000000000000000      0x8b8 bn_math.o
 .debug_loc     0x0000000000000000      0x254 bn_math.o
 .debug_aranges
                0x0000000000000000       0x30 bn_math.o
 .debug_ranges  0x0000000000000000       0x70 bn_math.o
 .debug_line    0x0000000000000000      0x82a bn_math.o
 .debug_str     0x0000000000000000     0x2afc bn_math.o
 .comment       0x0000000000000000       0x24 bn_math.o
 .debug_frame   0x0000000000000000       0x68 bn_math.o
 .group         0x0000000000000000        0xc bn_memory_manager.o
 .group         0x0000000000000000        0xc bn_memory_manager.o
 .group         0x0000000000000000        0xc bn_memory_manager.o
 .group         0x0000000000000000        0xc bn_memory_manager.o
 .group         0x0000000000000000        0xc bn_memory_manager.o
 .group         0x0000000000000000        0xc bn_memory_manager.o
 .group         0x0000000000000000        0xc bn_memory_manager.o
 .group         0x0000000000000000        0xc bn_memory_manager.o
 .group         0x0000000000000000        0xc bn_memory_manager.o
 .text          0x0000000000000000        0x0 bn_memory_manager.o
 .data          0x0000000000000000        0x0 bn_memory_manager.o
 .bss           0x0000000000000000        0x0 bn_memory_manager.o
 .text._ZdlPv   0x0000000000000000       0x18 bn_memory_manager.o
 .text._ZdlPvj  0x0000000000000000       0x18 bn_memory_manager.o
 .text._ZdaPv   0x0000000000000000       0x18 bn_memory_manager.o
 .text._ZdaPvj  0x0000000000000000       0x18 bn_memory_manager.o
 .text._ZN3_bn6memory17unsafe_copy_bytesEPKviPv
                0x0000000000000000       0x14 bn_memory_manager.o
 .text._ZN3_bn6memory22unsafe_copy_half_wordsEPKviPv
                0x0000000000000000       0x14 bn_memory_manager.o
 .text._ZN3_bn6memory17unsafe_copy_wordsEPKviPv
                0x0000000000000000       0x14 bn_memory_manager.o
 .text._ZN3_bn6memory18unsafe_clear_bytesEiPv
                0x0000000000000000       0x14 bn_memory_manager.o
 .text._ZN3_bn6memory23unsafe_clear_half_wordsEiPv
                0x0000000000000000       0x14 bn_memory_manager.o
 .text._ZN3_bn6memory18unsafe_clear_wordsEiPv
                0x0000000000000000       0x14 bn_memory_manager.o
 .text._ZN2bn6memory11ewram_allocEi
                0x0000000000000000       0x18 bn_memory_manager.o
 .text._ZN2bn6memory12ewram_callocEii
                0x0000000000000000       0x18 bn_memory_manager.o
 .text._ZN2bn6memory13ewram_reallocEPvi
                0x0000000000000000       0x18 bn_memory_manager.o
 .text._ZN2bn6memory10ewram_freeEPv
                0x0000000000000000       0x18 bn_memory_manager.o
 .text._ZN2bn6memory16used_alloc_ewramEv
                0x0000000000000000       0x10 bn_memory_manager.o
 .text._ZN2bn6memory21available_alloc_ewramEv
                0x0000000000000000        0xc bn_memory_manager.o
 .text._ZN2bn6memory22log_alloc_ewram_statusEv
                0x0000000000000000       0x14 bn_memory_manager.o
 .text._ZN2bn6memory16used_stack_iwramEv
                0x0000000000000000       0x10 bn_memory_manager.o
 .text._ZN2bn6memory17used_static_iwramEv
                0x0000000000000000        0xc bn_memory_manager.o
 .text._ZN2bn6memory17used_static_ewramEv
                0x0000000000000000        0xc bn_memory_manager.o
 .text._ZN2bn6mallocEi
                0x0000000000000000       0x18 bn_memory_manager.o
 .text._ZN2bn6callocEii
                0x0000000000000000       0x18 bn_memory_manager.o
 .text._ZN2bn7reallocEPvi
                0x0000000000000000       0x18 bn_memory_manager.o
 .text._ZN2bn4freeEPv
                0x0000000000000000       0x18 bn_memory_manager.o
 .text._ZN2bn14memory_manager11ewram_allocEi
                0x0000000000000000       0x18 bn_memory_manager.o
 .text._ZN2bn14memory_manager12ewram_callocEii
                0x0000000000000000       0x18 bn_memory_manager.o
 .text._ZN2bn14memory_manager13ewram_reallocEPvi
                0x0000000000000000       0x18 bn_memory_manager.o
 .text._ZN2bn14memory_manager10ewram_freeEPv
                0x0000000000000000       0x18 bn_memory_manager.o
 .text._ZN2bn14memory_manager16used_alloc_ewramEv
                0x0000000000000000       0x10 bn_memory_manager.o
 .text._ZN2bn14memory_manager21available_alloc_ewramEv
                0x0000000000000000        0xc bn_memory_manager.o
 .text._ZN2bn14memory_manager22log_alloc_ewram_statusEv
                0x0000000000000000       0x14 bn_memory_manager.o
 .rodata._Znaj.str1.4
                0x0000000000000000       0x10 bn_memory_manager.o
 .text._Znaj    0x0000000000000000       0x40 bn_memory_manager.o
 .text._ZN3_bn6assert9show_argsIA16_ciEEvPKcS4_S4_iRKT_RKT0_
                0x0000000000000000       0x58 bn_memory_manager.o
 .text._ZN3_bn6assert9show_argsIA20_cEEvPKcS4_S4_iRKT_
                0x0000000000000000       0x50 bn_memory_manager.o
 .rodata._ZN2bn6memory9set_bytesEhiPv.str1.4
                0x0000000000000000       0x4c bn_memory_manager.o
 .text._ZN2bn6memory9set_bytesEhiPv
                0x0000000000000000       0x5c bn_memory_manager.o
 .rodata._ZN2bn6memsetEPvhi.str1.4
                0x0000000000000000       0x28 bn_memory_manager.o
 .text._ZN2bn6memsetEPvhi
                0x0000000000000000       0x58 bn_memory_manager.o
 .rodata._ZN2bn8memclearEPvi.str1.4
                0x0000000000000000        0x9 bn_memory_manager.o
 .text._ZN2bn8memclearEPvi
                0x0000000000000000       0x58 bn_memory_manager.o
 .text._ZN3_bn6assert9show_argsIA21_ciEEvPKcS4_S4_iRKT_RKT0_
                0x0000000000000000       0x58 bn_memory_manager.o
 .text._ZN3_bn6assert9show_argsIA27_cEEvPKcS4_S4_iRKT_
                0x0000000000000000       0x50 bn_memory_manager.o
 .rodata._ZN2bn6memory14set_half_wordsEtiPv.str1.4
                0x0000000000000000       0x6f bn_memory_manager.o
 .text._ZN2bn6memory14set_half_wordsEtiPv
                0x0000000000000000       0x7c bn_memory_manager.o
 .rodata._ZN2bn6memory9set_wordsEjiPv.str1.4
                0x0000000000000000       0x44 bn_memory_manager.o
 .text._ZN2bn6memory9set_wordsEjiPv
                0x0000000000000000       0x7c bn_memory_manager.o
 .text._ZN3_bn6assert9show_argsIA15_cEEvPKcS4_S4_iRKT_
                0x0000000000000000       0x50 bn_memory_manager.o
 .rodata._ZN2bn6memcpyEPvPKvi.str1.4
                0x0000000000000000       0x1f bn_memory_manager.o
 .text._ZN2bn6memcpyEPvPKvi
                0x0000000000000000       0x70 bn_memory_manager.o
 .text._ZN3_bn6assert9show_argsIA27_ciEEvPKcS4_S4_iRKT_RKT0_
                0x0000000000000000       0x58 bn_memory_manager.o
 .text._ZN3_bn6assert9show_argsIA19_ciEEvPKcS4_S4_iRKT_RKT0_
                0x0000000000000000       0x58 bn_memory_manager.o
 .rodata._ZN2bn6memory4copyIcEEvRKT_iRS2_.str1.4
                0x0000000000000000       0x37 bn_memory_manager.o
 .text._ZN2bn6memory4copyIcEEvRKT_iRS2_
                0x0000000000000000       0x78 bn_memory_manager.o
 .rodata._ZN2bn6memory10decompressENS_16compression_typeEPKviPv.str1.4
                0x0000000000000000       0x37 bn_memory_manager.o
 .text._ZN2bn6memory10decompressENS_16compression_typeEPKviPv
                0x0000000000000000       0xe4 bn_memory_manager.o
 .group         0x0000000000000000        0xc bn_palettes_manager.o
 .group         0x0000000000000000        0xc bn_palettes_manager.o
 .group         0x0000000000000000        0xc bn_palettes_manager.o
 .group         0x0000000000000000        0xc bn_palettes_manager.o
 .group         0x0000000000000000        0xc bn_palettes_manager.o
 .group         0x0000000000000000        0xc bn_palettes_manager.o
 .group         0x0000000000000000        0xc bn_palettes_manager.o
 .group         0x0000000000000000        0xc bn_palettes_manager.o
 .group         0x0000000000000000        0xc bn_palettes_manager.o
 .group         0x0000000000000000        0xc bn_palettes_manager.o
 .group         0x0000000000000000        0xc bn_palettes_manager.o
 .group         0x0000000000000000        0xc bn_palettes_manager.o
 .group         0x0000000000000000        0xc bn_palettes_manager.o
 .group         0x0000000000000000        0xc bn_palettes_manager.o
 .group         0x0000000000000000        0xc bn_palettes_manager.o
 .group         0x0000000000000000        0xc bn_palettes_manager.o
 .group         0x0000000000000000        0xc bn_palettes_manager.o
 .group         0x0000000000000000        0xc bn_palettes_manager.o
 .text          0x0000000000000000        0x0 bn_palettes_manager.o
 .data          0x0000000000000000        0x0 bn_palettes_manager.o
 .bss           0x0000000000000000        0x0 bn_palettes_manager.o
 .text._ZN2bn11bg_palettes17used_colors_countEv
                0x0000000000000000       0x24 bn_palettes_manager.o
 .text._ZN2bn11bg_palettes22available_colors_countEv
                0x0000000000000000       0x2c bn_palettes_manager.o
 .text._ZN2bn11bg_palettes17transparent_colorEv
                0x0000000000000000        0x8 bn_palettes_manager.o
 .text._ZN2bn11bg_palettes21set_transparent_colorENS_5colorE
                0x0000000000000000       0x40 bn_palettes_manager.o
 .text._ZN2bn11bg_palettes21set_transparent_colorERKNS_8optionalINS_5colorEEE
                0x0000000000000000       0x50 bn_palettes_manager.o
 .text._ZN2bn11bg_palettes24remove_transparent_colorEv
                0x0000000000000000       0x30 bn_palettes_manager.o
 .text._ZN2bn11bg_palettes10brightnessEv
                0x0000000000000000       0x10 bn_palettes_manager.o
 .text._ZN2bn11bg_palettes8contrastEv
                0x0000000000000000       0x10 bn_palettes_manager.o
 .text._ZN2bn11bg_palettes9intensityEv
                0x0000000000000000       0x10 bn_palettes_manager.o
 .text._ZN2bn11bg_palettes8invertedEv
                0x0000000000000000       0x10 bn_palettes_manager.o
 .text._ZN2bn11bg_palettes12set_invertedEb
                0x0000000000000000       0x94 bn_palettes_manager.o
 .text._ZN2bn11bg_palettes19grayscale_intensityEv
                0x0000000000000000       0x10 bn_palettes_manager.o
 .text._ZN2bn11bg_palettes19hue_shift_intensityEv
                0x0000000000000000       0x10 bn_palettes_manager.o
 .text._ZN2bn11bg_palettes10fade_colorEv
                0x0000000000000000       0x10 bn_palettes_manager.o
 .text._ZN2bn11bg_palettes14fade_intensityEv
                0x0000000000000000       0x10 bn_palettes_manager.o
 .text._ZN2bn11bg_palettes14set_fade_colorENS_5colorE
                0x0000000000000000       0x40 bn_palettes_manager.o
 .text._ZNK2bn14bg_palette_ptr12colors_countEv
                0x0000000000000000       0x18 bn_palettes_manager.o
 .text._ZNK2bn14bg_palette_ptr8invertedEv
                0x0000000000000000       0x20 bn_palettes_manager.o
 .text._ZN2bn14bg_palette_ptr12set_invertedEb
                0x0000000000000000       0x48 bn_palettes_manager.o
 .text._ZNK2bn14bg_palette_ptr19grayscale_intensityEv
                0x0000000000000000       0x1c bn_palettes_manager.o
 .text._ZNK2bn14bg_palette_ptr19hue_shift_intensityEv
                0x0000000000000000       0x14 bn_palettes_manager.o
 .text._ZNK2bn14bg_palette_ptr10fade_colorEv
                0x0000000000000000       0x14 bn_palettes_manager.o
 .text._ZNK2bn14bg_palette_ptr14fade_intensityEv
                0x0000000000000000       0x14 bn_palettes_manager.o
 .text._ZN2bn14bg_palette_ptr14set_fade_colorENS_5colorE
                0x0000000000000000       0x68 bn_palettes_manager.o
 .text._ZNK2bn14bg_palette_ptr12rotate_countEv
                0x0000000000000000       0x14 bn_palettes_manager.o
 .text._ZN2bn15sprite_palettes17used_colors_countEv
                0x0000000000000000       0x24 bn_palettes_manager.o
 .text._ZN2bn15sprite_palettes22available_colors_countEv
                0x0000000000000000       0x2c bn_palettes_manager.o
 .text._ZN2bn15sprite_palettes10brightnessEv
                0x0000000000000000       0x10 bn_palettes_manager.o
 .text._ZN2bn15sprite_palettes8contrastEv
                0x0000000000000000       0x10 bn_palettes_manager.o
 .text._ZN2bn15sprite_palettes9intensityEv
                0x0000000000000000       0x10 bn_palettes_manager.o
 .text._ZN2bn15sprite_palettes8invertedEv
                0x0000000000000000       0x10 bn_palettes_manager.o
 .text._ZN2bn15sprite_palettes12set_invertedEb
                0x0000000000000000       0x8c bn_palettes_manager.o
 .text._ZN2bn15sprite_palettes19grayscale_intensityEv
                0x0000000000000000       0x10 bn_palettes_manager.o
 .text._ZN2bn15sprite_palettes19hue_shift_intensityEv
                0x0000000000000000       0x10 bn_palettes_manager.o
 .text._ZN2bn15sprite_palettes10fade_colorEv
                0x0000000000000000       0x10 bn_palettes_manager.o
 .text._ZN2bn15sprite_palettes14fade_intensityEv
                0x0000000000000000       0x10 bn_palettes_manager.o
 .text._ZN2bn15sprite_palettes14set_fade_colorENS_5colorE
                0x0000000000000000       0x3c bn_palettes_manager.o
 .text._ZN2bn18sprite_palette_ptrC2ERKS0_
                0x0000000000000000       0x1c bn_palettes_manager.o
 .text._ZNK2bn18sprite_palette_ptr12colors_countEv
                0x0000000000000000       0x1c bn_palettes_manager.o
 .text._ZNK2bn18sprite_palette_ptr8invertedEv
                0x0000000000000000       0x1c bn_palettes_manager.o
 .text._ZN2bn18sprite_palette_ptr12set_invertedEb
                0x0000000000000000       0x44 bn_palettes_manager.o
 .text._ZNK2bn18sprite_palette_ptr19grayscale_intensityEv
                0x0000000000000000       0x18 bn_palettes_manager.o
 .text._ZNK2bn18sprite_palette_ptr19hue_shift_intensityEv
                0x0000000000000000       0x18 bn_palettes_manager.o
 .text._ZNK2bn18sprite_palette_ptr10fade_colorEv
                0x0000000000000000       0x18 bn_palettes_manager.o
 .text._ZNK2bn18sprite_palette_ptr14fade_intensityEv
                0x0000000000000000       0x18 bn_palettes_manager.o
 .text._ZN2bn18sprite_palette_ptr14set_fade_colorENS_5colorE
                0x0000000000000000       0x4c bn_palettes_manager.o
 .text._ZNK2bn18sprite_palette_ptr12rotate_countEv
                0x0000000000000000       0x18 bn_palettes_manager.o
 .text._ZNK2bn13palettes_bank17used_colors_countEv
                0x0000000000000000       0x28 bn_palettes_manager.o
 .text._ZN2bn11bg_palettes10log_statusEv
                0x0000000000000000       0x14 bn_palettes_manager.o
 .text._ZN2bn15sprite_palettes10log_statusEv
                0x0000000000000000       0x14 bn_palettes_manager.o
 .text._ZN2bn13palettes_bank10find_bpp_8ERKNS_4spanIKNS_5colorEEE
                0x0000000000000000       0x3c bn_palettes_manager.o
 .text._ZN2bn13palettes_bank15increase_usagesEi
                0x0000000000000000       0x10 bn_palettes_manager.o
 .text._ZNK2bn13palettes_bank3bppEi
                0x0000000000000000       0x10 bn_palettes_manager.o
 .text._ZN2bn13palettes_bank12set_invertedEib
                0x0000000000000000       0x38 bn_palettes_manager.o
 .text._ZN2bn13palettes_bank14set_fade_colorEiNS_5colorE
                0x0000000000000000       0x40 bn_palettes_manager.o
 .text._ZN2bn13palettes_bank6reloadEi
                0x0000000000000000       0x48 bn_palettes_manager.o
 .text._ZN2bn13palettes_bank21set_transparent_colorERKNS_8optionalINS_5colorEEE
                0x0000000000000000       0x48 bn_palettes_manager.o
 .text._ZN2bn13palettes_bank14set_fade_colorENS_5colorE
                0x0000000000000000       0x3c bn_palettes_manager.o
 .text._ZN2bn13palettes_bank17reset_commit_dataEv
                0x0000000000000000       0x18 bn_palettes_manager.o
 .text._ZNK2bn13palettes_bank18_bpp_8_slots_countEv
                0x0000000000000000       0x18 bn_palettes_manager.o
 .text._ZNK2bn13palettes_bank26_first_bpp_4_palette_indexEv
                0x0000000000000000       0x34 bn_palettes_manager.o
 .text._ZN2bn13palettes_bank29_check_global_effects_enabledEv
                0x0000000000000000       0x6c bn_palettes_manager.o
 .text._ZN2bn13palettes_bank12set_invertedEb
                0x0000000000000000       0x38 bn_palettes_manager.o
 .text._ZN2bn13palettes_bank20_set_colors_bpp_implEiRKNS_4spanIKNS_5colorEEE
                0x0000000000000000       0x40 bn_palettes_manager.o
 .text._ZN3_bn6assert9show_argsIA15_ciEEvPKcS4_S4_iRKT_RKT0_
                0x0000000000000000       0x58 bn_palettes_manager.o
 .text._ZNK2bn13palettes_bank6colorsEi
                0x0000000000000000       0x58 bn_palettes_manager.o
 .text._ZNK2bn18sprite_palette_ptr6colorsEv
                0x0000000000000000       0x60 bn_palettes_manager.o
 .text._ZNK2bn14bg_palette_ptr6colorsEv
                0x0000000000000000       0x60 bn_palettes_manager.o
 .text._ZN3_bn6assert9show_argsIA27_ciEEvPKcS4_S4_iRKT_RKT0_
                0x0000000000000000       0x58 bn_palettes_manager.o
 .text._ZN3_bn6assert9show_argsIA23_cEEvPKcS4_S4_iRKT_
                0x0000000000000000       0x50 bn_palettes_manager.o
 .text._ZN2bn13ostringstream6appendILi12EEEvNS_7fixed_tIXT_EEE
                0x0000000000000000       0xa0 bn_palettes_manager.o
 .text._ZN3_bn6assert9show_argsIA20_cN2bn7fixed_tILi12EEEEEvPKcS7_S7_iRKT_RKT0_
                0x0000000000000000       0x58 bn_palettes_manager.o
 .rodata._ZN2bn13palettes_bank23set_grayscale_intensityEiNS_7fixed_tILi12EEE.str1.4
                0x0000000000000000       0x50 bn_palettes_manager.o
 .text._ZN2bn13palettes_bank23set_grayscale_intensityEiNS_7fixed_tILi12EEE
                0x0000000000000000       0x70 bn_palettes_manager.o
 .rodata._ZN2bn13palettes_bank23set_hue_shift_intensityEiNS_7fixed_tILi12EEE.str1.4
                0x0000000000000000       0x18 bn_palettes_manager.o
 .text._ZN2bn13palettes_bank23set_hue_shift_intensityEiNS_7fixed_tILi12EEE
                0x0000000000000000       0x70 bn_palettes_manager.o
 .rodata._ZN2bn13palettes_bank18set_fade_intensityEiNS_7fixed_tILi12EEE.str1.4
                0x0000000000000000       0x13 bn_palettes_manager.o
 .text._ZN2bn13palettes_bank18set_fade_intensityEiNS_7fixed_tILi12EEE
                0x0000000000000000       0x70 bn_palettes_manager.o
 .rodata._ZN2bn13palettes_bank8set_fadeEiNS_5colorENS_7fixed_tILi12EEE.str1.4
                0x0000000000000000        0x9 bn_palettes_manager.o
 .text._ZN2bn13palettes_bank8set_fadeEiNS_5colorENS_7fixed_tILi12EEE
                0x0000000000000000       0x94 bn_palettes_manager.o
 .rodata._ZN2bn13palettes_bank13set_intensityENS_7fixed_tILi12EEE.str1.4
                0x0000000000000000        0xe bn_palettes_manager.o
 .text._ZN2bn13palettes_bank13set_intensityENS_7fixed_tILi12EEE
                0x0000000000000000       0x78 bn_palettes_manager.o
 .text._ZN2bn13palettes_bank23set_grayscale_intensityENS_7fixed_tILi12EEE
                0x0000000000000000       0x78 bn_palettes_manager.o
 .text._ZN2bn13palettes_bank23set_hue_shift_intensityENS_7fixed_tILi12EEE
                0x0000000000000000       0x7c bn_palettes_manager.o
 .text._ZN2bn13palettes_bank18set_fade_intensityENS_7fixed_tILi12EEE
                0x0000000000000000       0x78 bn_palettes_manager.o
 .text._ZN2bn13palettes_bank8set_fadeENS_5colorENS_7fixed_tILi12EEE
                0x0000000000000000       0xa8 bn_palettes_manager.o
 .text._ZN2bn18sprite_palette_ptr18set_fade_intensityENS_7fixed_tILi12EEE
                0x0000000000000000       0x78 bn_palettes_manager.o
 .text._ZN2bn18sprite_palette_ptr23set_grayscale_intensityENS_7fixed_tILi12EEE
                0x0000000000000000       0x78 bn_palettes_manager.o
 .text._ZN2bn18sprite_palette_ptr23set_hue_shift_intensityENS_7fixed_tILi12EEE
                0x0000000000000000       0x78 bn_palettes_manager.o
 .text._ZN2bn14bg_palette_ptr18set_fade_intensityENS_7fixed_tILi12EEE
                0x0000000000000000       0x84 bn_palettes_manager.o
 .text._ZN2bn14bg_palette_ptr23set_grayscale_intensityENS_7fixed_tILi12EEE
                0x0000000000000000       0x84 bn_palettes_manager.o
 .text._ZN2bn14bg_palette_ptr23set_hue_shift_intensityENS_7fixed_tILi12EEE
                0x0000000000000000       0x88 bn_palettes_manager.o
 .text._ZN2bn15sprite_palettes18set_fade_intensityENS_7fixed_tILi12EEE
                0x0000000000000000       0x80 bn_palettes_manager.o
 .text._ZN2bn15sprite_palettes23set_grayscale_intensityENS_7fixed_tILi12EEE
                0x0000000000000000       0x80 bn_palettes_manager.o
 .text._ZN2bn15sprite_palettes13set_intensityENS_7fixed_tILi12EEE
                0x0000000000000000       0x80 bn_palettes_manager.o
 .text._ZN2bn11bg_palettes18set_fade_intensityENS_7fixed_tILi12EEE
                0x0000000000000000       0x8c bn_palettes_manager.o
 .text._ZN2bn11bg_palettes13set_intensityENS_7fixed_tILi12EEE
                0x0000000000000000       0x88 bn_palettes_manager.o
 .text._ZN2bn15sprite_palettes23set_hue_shift_intensityENS_7fixed_tILi12EEE
                0x0000000000000000       0x80 bn_palettes_manager.o
 .text._ZN2bn11bg_palettes23set_hue_shift_intensityENS_7fixed_tILi12EEE
                0x0000000000000000       0x8c bn_palettes_manager.o
 .text._ZN2bn11bg_palettes23set_grayscale_intensityENS_7fixed_tILi12EEE
                0x0000000000000000       0x8c bn_palettes_manager.o
 .text._ZN2bn14bg_palette_ptr8set_fadeENS_5colorENS_7fixed_tILi12EEE
                0x0000000000000000       0xd0 bn_palettes_manager.o
 .text._ZN2bn18sprite_palette_ptr8set_fadeENS_5colorENS_7fixed_tILi12EEE
                0x0000000000000000       0xa4 bn_palettes_manager.o
 .text._ZN2bn15sprite_palettes8set_fadeENS_5colorENS_7fixed_tILi12EEE
                0x0000000000000000       0xb4 bn_palettes_manager.o
 .text._ZN2bn11bg_palettes8set_fadeENS_5colorENS_7fixed_tILi12EEE
                0x0000000000000000       0xc4 bn_palettes_manager.o
 .text._ZN3_bn6assert9show_argsIA21_cN2bn7fixed_tILi12EEEEEvPKcS7_S7_iRKT_RKT0_
                0x0000000000000000       0x58 bn_palettes_manager.o
 .rodata._ZN2bn13palettes_bank14set_brightnessENS_7fixed_tILi12EEE.str1.4
                0x0000000000000000       0x49 bn_palettes_manager.o
 .text._ZN2bn13palettes_bank14set_brightnessENS_7fixed_tILi12EEE
                0x0000000000000000       0x78 bn_palettes_manager.o
 .text._ZN2bn15sprite_palettes14set_brightnessENS_7fixed_tILi12EEE
                0x0000000000000000       0x80 bn_palettes_manager.o
 .text._ZN2bn11bg_palettes14set_brightnessENS_7fixed_tILi12EEE
                0x0000000000000000       0x88 bn_palettes_manager.o
 .text._ZN3_bn6assert9show_argsIA19_cN2bn7fixed_tILi12EEEEEvPKcS7_S7_iRKT_RKT0_
                0x0000000000000000       0x58 bn_palettes_manager.o
 .rodata._ZN2bn13palettes_bank12set_contrastENS_7fixed_tILi12EEE.str1.4
                0x0000000000000000       0x43 bn_palettes_manager.o
 .text._ZN2bn13palettes_bank12set_contrastENS_7fixed_tILi12EEE
                0x0000000000000000       0x78 bn_palettes_manager.o
 .text._ZN2bn15sprite_palettes12set_contrastENS_7fixed_tILi12EEE
                0x0000000000000000       0x7c bn_palettes_manager.o
 .text._ZN2bn11bg_palettes12set_contrastENS_7fixed_tILi12EEE
                0x0000000000000000       0x88 bn_palettes_manager.o
 .text._ZN3_bn6assert9show_argsIA17_cEEvPKcS4_S4_iRKT_
                0x0000000000000000       0x50 bn_palettes_manager.o
 .text._ZN2bn13ostringstream11append_argsIA4_cJiEEEvRKT_DpRKT0_
                0x0000000000000000       0x18 bn_palettes_manager.o
 .text._ZN3_bn6assert9show_argsIJA39_cPKN2bn5colorEA4_ciEEEvPKcS9_S9_iDpRKT_
                0x0000000000000000       0x64 bn_palettes_manager.o
 .text._ZN3_bn6assert9show_argsIJA16_ciA4_ciEEEvPKcS5_S5_iDpRKT_
                0x0000000000000000       0x64 bn_palettes_manager.o
 .text._ZN2bn13palettes_bank16set_rotate_countEii
                0x0000000000000000       0x7c bn_palettes_manager.o
 .text._ZN2bn14bg_palette_ptr16set_rotate_countEi
                0x0000000000000000       0x9c bn_palettes_manager.o
 .text._ZN2bn18sprite_palette_ptr16set_rotate_countEi
                0x0000000000000000       0x84 bn_palettes_manager.o
 .text._ZN3_bn6assert9show_argsIJA58_ciA4_ciEEEvPKcS5_S5_iDpRKT_
                0x0000000000000000       0x64 bn_palettes_manager.o
 .text._ZNK2bn15bg_palette_item10decompressENS_4spanINS_5colorEEE
                0x0000000000000000      0x170 bn_palettes_manager.o
 .text._ZN3_bn6assert9show_argsIJA24_ciA4_ciEEEvPKcS5_S5_iDpRKT_
                0x0000000000000000       0x64 bn_palettes_manager.o
 .text._ZN3_bn6assert9show_argsIA26_cEEvPKcS4_S4_iRKT_
                0x0000000000000000       0x50 bn_palettes_manager.o
 .text._ZN2bn12_GLOBAL__N_112_create_implERKNS_15bg_palette_itemEb
                0x0000000000000000       0x94 bn_palettes_manager.o
 .text._ZN2bn14bg_palette_ptr6createERKNS_15bg_palette_itemE
                0x0000000000000000       0x54 bn_palettes_manager.o
 .text._ZNK2bn15bg_palette_item14create_paletteEv
                0x0000000000000000       0x10 bn_palettes_manager.o
 .text._ZN2bn14bg_palette_ptr15create_optionalERKNS_15bg_palette_itemE
                0x0000000000000000       0x64 bn_palettes_manager.o
 .text._ZNK2bn15bg_palette_item23create_palette_optionalEv
                0x0000000000000000       0x10 bn_palettes_manager.o
 .text._ZN2bn18sprite_palette_ptr6createERKNS_19sprite_palette_itemE
                0x0000000000000000       0x48 bn_palettes_manager.o
 .text._ZN2bn18sprite_palette_ptr15create_optionalERKNS_19sprite_palette_itemE
                0x0000000000000000       0x58 bn_palettes_manager.o
 .text._ZNK2bn19sprite_palette_item23create_palette_optionalEv
                0x0000000000000000       0x58 bn_palettes_manager.o
 .text._ZN2bn18sprite_palette_ptr19create_new_optionalERKNS_19sprite_palette_itemE
                0x0000000000000000       0x98 bn_palettes_manager.o
 .text._ZNK2bn19sprite_palette_item27create_new_palette_optionalEv
                0x0000000000000000       0x10 bn_palettes_manager.o
 .text._ZN2bn14bg_palette_ptr19create_new_optionalERKNS_15bg_palette_itemE
                0x0000000000000000       0xa8 bn_palettes_manager.o
 .text._ZNK2bn15bg_palette_item27create_new_palette_optionalEv
                0x0000000000000000       0x10 bn_palettes_manager.o
 .text._ZNK2bn19sprite_palette_item18create_new_paletteEv
                0x0000000000000000       0x8c bn_palettes_manager.o
 .text._ZN2bn14bg_palette_ptr10create_newERKNS_15bg_palette_itemE
                0x0000000000000000       0x98 bn_palettes_manager.o
 .text._ZNK2bn15bg_palette_item18create_new_paletteEv
                0x0000000000000000       0x10 bn_palettes_manager.o
 .text._ZN2bn18sprite_palette_ptr10create_newERKNS_19sprite_palette_itemE
                0x0000000000000000       0x8c bn_palettes_manager.o
 .text._ZN3_bn6assert9show_argsIA25_ciEEvPKcS4_S4_iRKT_RKT0_
                0x0000000000000000       0x58 bn_palettes_manager.o
 .rodata._ZN2bn13palettes_bank10set_colorsEiRKNS_4spanIKNS_5colorEEE.str1.4
                0x0000000000000000       0x48 bn_palettes_manager.o
 .text._ZN2bn13palettes_bank10set_colorsEiRKNS_4spanIKNS_5colorEEE
                0x0000000000000000      0x2ec bn_palettes_manager.o
 .text._ZN2bn14bg_palette_ptr10set_colorsERKNS_15bg_palette_itemE
                0x0000000000000000       0x58 bn_palettes_manager.o
 .text._ZN2bn18sprite_palette_ptr10set_colorsERKNS_19sprite_palette_itemE
                0x0000000000000000       0x58 bn_palettes_manager.o
 .text._ZN2bn13palettes_bank15decrease_usagesEi
                0x0000000000000000       0x20 bn_palettes_manager.o
 .text._ZN2bn18sprite_palette_ptraSERKS0_
                0x0000000000000000       0x50 bn_palettes_manager.o
 .text._ZN2bn18sprite_palette_ptr4findERKNS_19sprite_palette_itemE
                0x0000000000000000      0x110 bn_palettes_manager.o
 .text._ZNK2bn19sprite_palette_item12find_paletteEv
                0x0000000000000000       0x10 bn_palettes_manager.o
 .text._ZN2bn14bg_palette_ptr4findERKNS_15bg_palette_itemE
                0x0000000000000000      0x148 bn_palettes_manager.o
 .text._ZNK2bn15bg_palette_item12find_paletteEv
                0x0000000000000000       0x10 bn_palettes_manager.o
 .text          0x0000000000000000        0x0 bn_profiler.o
 .data          0x0000000000000000        0x0 bn_profiler.o
 .bss           0x0000000000000000        0x0 bn_profiler.o
 .debug_info    0x0000000000000000      0x45f bn_profiler.o
 .debug_abbrev  0x0000000000000000       0xdc bn_profiler.o
 .debug_aranges
                0x0000000000000000       0x18 bn_profiler.o
 .debug_line    0x0000000000000000      0x273 bn_profiler.o
 .debug_str     0x0000000000000000      0x4ad bn_profiler.o
 .comment       0x0000000000000000       0x24 bn_profiler.o
 .text          0x0000000000000000        0x0 bn_reciprocal_lut.o
 .data          0x0000000000000000        0x0 bn_reciprocal_lut.o
 .bss           0x0000000000000000        0x0 bn_reciprocal_lut.o
 .rodata._ZN2bn17reciprocal_16_lutE
                0x0000000000000000        0x4 bn_reciprocal_lut.o
 .rodata._ZN2bn14reciprocal_lutE
                0x0000000000000000        0x4 bn_reciprocal_lut.o
 .rodata._ZN2bn12_GLOBAL__N_1L22reciprocal_16_lut_implE
                0x0000000000000000      0x802 bn_reciprocal_lut.o
 .rodata._ZN2bn12_GLOBAL__N_1L19reciprocal_lut_implE
                0x0000000000000000     0x1004 bn_reciprocal_lut.o
 .debug_info    0x0000000000000000     0x501d bn_reciprocal_lut.o
 .debug_abbrev  0x0000000000000000      0x715 bn_reciprocal_lut.o
 .debug_aranges
                0x0000000000000000       0x18 bn_reciprocal_lut.o
 .debug_line    0x0000000000000000      0x54a bn_reciprocal_lut.o
 .debug_str     0x0000000000000000     0x2c3b bn_reciprocal_lut.o
 .comment       0x0000000000000000       0x24 bn_reciprocal_lut.o
 .text          0x0000000000000000        0x0 bn_sin_lut.o
 .data          0x0000000000000000        0x0 bn_sin_lut.o
 .bss           0x0000000000000000        0x0 bn_sin_lut.o
 .rodata._ZN2bn7sin_lutE
                0x0000000000000000        0x4 bn_sin_lut.o
 .rodata._ZN2bn12_GLOBAL__N_1L12sin_lut_implE
                0x0000000000000000     0x1002 bn_sin_lut.o
 .debug_info    0x0000000000000000     0x3e2c bn_sin_lut.o
 .debug_abbrev  0x0000000000000000      0x6a3 bn_sin_lut.o
 .debug_aranges
                0x0000000000000000       0x18 bn_sin_lut.o
 .debug_line    0x0000000000000000      0x52e bn_sin_lut.o
 .debug_str     0x0000000000000000     0x1f19 bn_sin_lut.o
 .comment       0x0000000000000000       0x24 bn_sin_lut.o
 .group         0x0000000000000000        0xc bn_sprite_affine_mats_manager.o
 .group         0x0000000000000000        0xc bn_sprite_affine_mats_manager.o
 .group         0x0000000000000000        0xc bn_sprite_affine_mats_manager.o
 .group         0x0000000000000000        0xc bn_sprite_affine_mats_manager.o
 .group         0x0000000000000000        0xc bn_sprite_affine_mats_manager.o
 .group         0x0000000000000000        0xc bn_sprite_affine_mats_manager.o
 .group         0x0000000000000000        0xc bn_sprite_affine_mats_manager.o
 .group         0x0000000000000000        0xc bn_sprite_affine_mats_manager.o
 .group         0x0000000000000000        0xc bn_sprite_affine_mats_manager.o
 .group         0x0000000000000000        0xc bn_sprite_affine_mats_manager.o
 .group         0x0000000000000000        0xc bn_sprite_affine_mats_manager.o
 .group         0x0000000000000000        0xc bn_sprite_affine_mats_manager.o
 .text          0x0000000000000000        0x0 bn_sprite_affine_mats_manager.o
 .data          0x0000000000000000        0x0 bn_sprite_affine_mats_manager.o
 .bss           0x0000000000000000        0x0 bn_sprite_affine_mats_manager.o
 .text._ZN2bn26sprite_affine_mats_manager12_GLOBAL__N_119_sprite_double_sizeILi32ELi16EEEbiiiii
                0x0000000000000000       0x84 bn_sprite_affine_mats_manager.o
 .text._ZN2bn26sprite_affine_mats_manager12_GLOBAL__N_119_sprite_double_sizeILi16ELi32EEEbiiiii
                0x0000000000000000       0x84 bn_sprite_affine_mats_manager.o
 .text._ZN2bn26sprite_affine_mats_manager12_GLOBAL__N_124_update_flipped_identityEi
                0x0000000000000000       0xb4 bn_sprite_affine_mats_manager.o
 .text._ZN2bn26sprite_affine_mats_manager12_GLOBAL__N_17_updateEi
                0x0000000000000000       0x74 bn_sprite_affine_mats_manager.o
 .text._ZN2bn18sprite_affine_mats10used_countEv
                0x0000000000000000       0x1c bn_sprite_affine_mats_manager.o
 .text._ZN2bn18sprite_affine_mats15available_countEv
                0x0000000000000000       0x10 bn_sprite_affine_mats_manager.o
 .text._ZN2bn21sprite_affine_mat_ptrC2ERKS0_
                0x0000000000000000       0x20 bn_sprite_affine_mats_manager.o
 .text._ZNK2bn21sprite_affine_mat_ptr14rotation_angleEv
                0x0000000000000000       0x14 bn_sprite_affine_mats_manager.o
 .text._ZNK2bn21sprite_affine_mat_ptr16horizontal_scaleEv
                0x0000000000000000       0x18 bn_sprite_affine_mats_manager.o
 .text._ZNK2bn21sprite_affine_mat_ptr14vertical_scaleEv
                0x0000000000000000       0x18 bn_sprite_affine_mats_manager.o
 .text._ZNK2bn21sprite_affine_mat_ptr16horizontal_shearEv
                0x0000000000000000       0x18 bn_sprite_affine_mats_manager.o
 .text._ZN2bn21sprite_affine_mat_ptr20set_horizontal_shearENS_7fixed_tILi12EEE
                0x0000000000000000       0x54 bn_sprite_affine_mats_manager.o
 .text._ZNK2bn21sprite_affine_mat_ptr14vertical_shearEv
                0x0000000000000000       0x18 bn_sprite_affine_mats_manager.o
 .text._ZN2bn21sprite_affine_mat_ptr18set_vertical_shearENS_7fixed_tILi12EEE
                0x0000000000000000       0x54 bn_sprite_affine_mats_manager.o
 .text._ZNK2bn21sprite_affine_mat_ptr10attributesEv
                0x0000000000000000       0x14 bn_sprite_affine_mats_manager.o
 .text._ZNK2bn21sprite_affine_mat_ptr8identityEv
                0x0000000000000000       0x68 bn_sprite_affine_mats_manager.o
 .text._ZNK2bn21sprite_affine_mat_ptr16flipped_identityEv
                0x0000000000000000       0x14 bn_sprite_affine_mats_manager.o
 .text._ZN2bn26sprite_affine_mats_manager10used_countEv
                0x0000000000000000       0x1c bn_sprite_affine_mats_manager.o
 .text._ZN2bn26sprite_affine_mats_manager15available_countEv
                0x0000000000000000       0x10 bn_sprite_affine_mats_manager.o
 .text._ZN2bn26sprite_affine_mats_manager15increase_usagesEi
                0x0000000000000000       0x18 bn_sprite_affine_mats_manager.o
 .text._ZN2bn26sprite_affine_mats_manager13attach_spriteEiRNS_24intrusive_list_node_typeE
                0x0000000000000000       0x2c bn_sprite_affine_mats_manager.o
 .text._ZN2bn26sprite_affine_mats_manager14rotation_angleEi
                0x0000000000000000       0x10 bn_sprite_affine_mats_manager.o
 .text._ZN2bn26sprite_affine_mats_manager16horizontal_scaleEi
                0x0000000000000000       0x14 bn_sprite_affine_mats_manager.o
 .text._ZN2bn26sprite_affine_mats_manager14vertical_scaleEi
                0x0000000000000000       0x14 bn_sprite_affine_mats_manager.o
 .text._ZN2bn26sprite_affine_mats_manager16horizontal_shearEi
                0x0000000000000000       0x14 bn_sprite_affine_mats_manager.o
 .text._ZN2bn26sprite_affine_mats_manager20set_horizontal_shearEiNS_7fixed_tILi12EEE
                0x0000000000000000       0x54 bn_sprite_affine_mats_manager.o
 .text._ZN2bn26sprite_affine_mats_manager14vertical_shearEi
                0x0000000000000000       0x14 bn_sprite_affine_mats_manager.o
 .text._ZN2bn26sprite_affine_mats_manager18set_vertical_shearEiNS_7fixed_tILi12EEE
                0x0000000000000000       0x50 bn_sprite_affine_mats_manager.o
 .text._ZN2bn26sprite_affine_mats_manager9set_shearEiNS_7fixed_tILi12EEE
                0x0000000000000000       0x7c bn_sprite_affine_mats_manager.o
 .text._ZN2bn21sprite_affine_mat_ptr9set_shearENS_7fixed_tILi12EEE
                0x0000000000000000       0x14 bn_sprite_affine_mats_manager.o
 .text._ZN2bn26sprite_affine_mats_manager9set_shearEiNS_7fixed_tILi12EEES2_
                0x0000000000000000       0x94 bn_sprite_affine_mats_manager.o
 .text._ZN2bn21sprite_affine_mat_ptr9set_shearENS_7fixed_tILi12EEES2_
                0x0000000000000000       0x14 bn_sprite_affine_mats_manager.o
 .text._ZN2bn26sprite_affine_mats_manager15horizontal_flipEi
                0x0000000000000000       0x14 bn_sprite_affine_mats_manager.o
 .text._ZN2bn26sprite_affine_mats_manager19set_horizontal_flipEib
                0x0000000000000000       0x8c bn_sprite_affine_mats_manager.o
 .text._ZN2bn26sprite_affine_mats_manager13vertical_flipEi
                0x0000000000000000       0x14 bn_sprite_affine_mats_manager.o
 .text._ZN2bn26sprite_affine_mats_manager17set_vertical_flipEib
                0x0000000000000000       0x88 bn_sprite_affine_mats_manager.o
 .text._ZN2bn21sprite_affine_mat_ptr17set_vertical_flipEb
                0x0000000000000000       0x14 bn_sprite_affine_mats_manager.o
 .text._ZN2bn26sprite_affine_mats_manager10attributesEi
                0x0000000000000000       0x10 bn_sprite_affine_mats_manager.o
 .text._ZN2bn26sprite_affine_mats_manager14set_attributesEiRKNS_21affine_mat_attributesE
                0x0000000000000000       0x70 bn_sprite_affine_mats_manager.o
 .text._ZN2bn21sprite_affine_mat_ptr14set_attributesERKNS_21affine_mat_attributesE
                0x0000000000000000       0x14 bn_sprite_affine_mats_manager.o
 .text._ZN2bn26sprite_affine_mats_manager8identityEi
                0x0000000000000000       0x64 bn_sprite_affine_mats_manager.o
 .text._ZN2bn26sprite_affine_mats_manager16flipped_identityEi
                0x0000000000000000       0x10 bn_sprite_affine_mats_manager.o
 .text._ZN2bn26sprite_affine_mats_manager18sprite_double_sizeEiRKNS_17sprite_shape_sizeE
                0x0000000000000000      0x1e4 bn_sprite_affine_mats_manager.o
 .text._ZN2bn26sprite_affine_mats_manager6reloadEi
                0x0000000000000000       0x28 bn_sprite_affine_mats_manager.o
 .text._ZN3_bn6assert9show_argsIJA46_ciA4_ciEEEvPKcS5_S5_iDpRKT_
                0x0000000000000000       0x6c bn_sprite_affine_mats_manager.o
 .rodata._ZN2bn26sprite_affine_mats_manager22reserve_sprite_handlesEi.str1.4
                0x0000000000000000       0xb6 bn_sprite_affine_mats_manager.o
 .text._ZN2bn26sprite_affine_mats_manager22reserve_sprite_handlesEi
                0x0000000000000000       0xb0 bn_sprite_affine_mats_manager.o
 .text._ZN2bn13ostringstream6appendILi12EEEvNS_7fixed_tIXT_EEE
                0x0000000000000000       0xa0 bn_sprite_affine_mats_manager.o
 .text._ZN3_bn6assert9show_argsIA38_cN2bn7fixed_tILi12EEEEEvPKcS7_S7_iRKT_RKT0_
                0x0000000000000000       0x58 bn_sprite_affine_mats_manager.o
 .rodata._ZN2bn26sprite_affine_mats_manager18set_rotation_angleEiNS_7fixed_tILi12EEE.str1.4
                0x0000000000000000       0x76 bn_sprite_affine_mats_manager.o
 .text._ZN2bn26sprite_affine_mats_manager18set_rotation_angleEiNS_7fixed_tILi12EEE
                0x0000000000000000      0x130 bn_sprite_affine_mats_manager.o
 .text._ZN2bn21sprite_affine_mat_ptr18set_rotation_angleENS_7fixed_tILi12EEE
                0x0000000000000000       0x14 bn_sprite_affine_mats_manager.o
 .text._ZN3_bn6assert9show_argsIA27_cN2bn7fixed_tILi12EEEEEvPKcS7_S7_iRKT_RKT0_
                0x0000000000000000       0x58 bn_sprite_affine_mats_manager.o
 .text._ZN3_bn6assert9show_argsIA25_cN2bn7fixed_tILi12EEEEEvPKcS7_S7_iRKT_RKT0_
                0x0000000000000000       0x58 bn_sprite_affine_mats_manager.o
 .text._ZN3_bn6assert9show_argsIA16_cN2bn7fixed_tILi12EEEEEvPKcS7_S7_iRKT_RKT0_
                0x0000000000000000       0x58 bn_sprite_affine_mats_manager.o
 .text._ZN3_bn6assert9show_argsIA31_ciEEvPKcS4_S4_iRKT_RKT0_
                0x0000000000000000       0x58 bn_sprite_affine_mats_manager.o
 .rodata._ZN2bn26sprite_affine_mats_manager18set_vertical_scaleEiNS_7fixed_tILi12EEE.str1.4
                0x0000000000000000       0x5d bn_sprite_affine_mats_manager.o
 .text._ZN2bn26sprite_affine_mats_manager18set_vertical_scaleEiNS_7fixed_tILi12EEE
                0x0000000000000000       0xe0 bn_sprite_affine_mats_manager.o
 .text._ZN2bn21sprite_affine_mat_ptr18set_vertical_scaleENS_7fixed_tILi12EEE
                0x0000000000000000       0x14 bn_sprite_affine_mats_manager.o
 .rodata._ZN2bn26sprite_affine_mats_manager20set_horizontal_scaleEiNS_7fixed_tILi12EEE.str1.4
                0x0000000000000000       0x4b bn_sprite_affine_mats_manager.o
 .text._ZN2bn26sprite_affine_mats_manager20set_horizontal_scaleEiNS_7fixed_tILi12EEE
                0x0000000000000000       0xe4 bn_sprite_affine_mats_manager.o
 .text._ZN2bn21sprite_affine_mat_ptr20set_horizontal_scaleENS_7fixed_tILi12EEE
                0x0000000000000000       0x14 bn_sprite_affine_mats_manager.o
 .rodata._ZN2bn26sprite_affine_mats_manager9set_scaleEiNS_7fixed_tILi12EEE.str1.4
                0x0000000000000000       0x28 bn_sprite_affine_mats_manager.o
 .text._ZN2bn26sprite_affine_mats_manager9set_scaleEiNS_7fixed_tILi12EEE
                0x0000000000000000      0x138 bn_sprite_affine_mats_manager.o
 .text._ZN2bn21sprite_affine_mat_ptr9set_scaleENS_7fixed_tILi12EEE
                0x0000000000000000       0x14 bn_sprite_affine_mats_manager.o
 .text._ZN2bn26sprite_affine_mats_manager9set_scaleEiNS_7fixed_tILi12EEES2_
                0x0000000000000000      0x1a8 bn_sprite_affine_mats_manager.o
 .text._ZN2bn21sprite_affine_mat_ptr9set_scaleENS_7fixed_tILi12EEES2_
                0x0000000000000000       0x14 bn_sprite_affine_mats_manager.o
 .text._ZN3_bn6assert9show_argsIA16_cEEvPKcS4_S4_iRKT_
                0x0000000000000000       0x50 bn_sprite_affine_mats_manager.o
 .text._ZN3_bn6assert9show_argsIA17_cEEvPKcS4_S4_iRKT_
                0x0000000000000000       0x50 bn_sprite_affine_mats_manager.o
 .text._ZN2bn26sprite_affine_mats_manager12_GLOBAL__N_115_new_item_indexEv
                0x0000000000000000       0xd8 bn_sprite_affine_mats_manager.o
 .text._ZN2bn26sprite_affine_mats_manager15create_optionalEv
                0x0000000000000000       0x88 bn_sprite_affine_mats_manager.o
 .text._ZN2bn21sprite_affine_mat_ptr15create_optionalEv
                0x0000000000000000       0x20 bn_sprite_affine_mats_manager.o
 .text._ZN2bn26sprite_affine_mats_manager15create_optionalERKNS_21affine_mat_attributesE
                0x0000000000000000       0xf8 bn_sprite_affine_mats_manager.o
 .rodata._ZN2bn26sprite_affine_mats_manager6createERKNS_21affine_mat_attributesE.str1.4
                0x0000000000000000       0x35 bn_sprite_affine_mats_manager.o
 .text._ZN2bn26sprite_affine_mats_manager6createERKNS_21affine_mat_attributesE
                0x0000000000000000       0x34 bn_sprite_affine_mats_manager.o
 .text._ZN2bn21sprite_affine_mat_ptr15create_optionalERKNS_21affine_mat_attributesE
                0x0000000000000000       0x24 bn_sprite_affine_mats_manager.o
 .text._ZN2bn21sprite_affine_mat_ptr6createERKNS_21affine_mat_attributesE
                0x0000000000000000       0x3c bn_sprite_affine_mats_manager.o
 .text._ZN2bn26sprite_affine_mats_manager6createEv
                0x0000000000000000       0xb8 bn_sprite_affine_mats_manager.o
 .text._ZN2bn21sprite_affine_mat_ptr6createEv
                0x0000000000000000       0xc0 bn_sprite_affine_mats_manager.o
 .text._ZN3_bn6assert9show_argsIA15_cEEvPKcS4_S4_iRKT_
                0x0000000000000000       0x50 bn_sprite_affine_mats_manager.o
 .text._ZN2bn26sprite_affine_mats_manager15decrease_usagesEi
                0x0000000000000000       0x28 bn_sprite_affine_mats_manager.o
 .text._ZN2bn21sprite_affine_mat_ptraSERKS0_
                0x0000000000000000       0x50 bn_sprite_affine_mats_manager.o
 .text._ZN3_bn6assert9show_argsIA14_cEEvPKcS4_S4_iRKT_
                0x0000000000000000       0x50 bn_sprite_affine_mats_manager.o
 .text          0x0000000000000000        0x0 bn_sprites_manager.bn_iwram.o
 .data          0x0000000000000000        0x0 bn_sprites_manager.bn_iwram.o
 .bss           0x0000000000000000        0x0 bn_sprites_manager.bn_iwram.o
 .group         0x0000000000000000        0xc bn_sprites_manager.o
 .group         0x0000000000000000        0xc bn_sprites_manager.o
 .group         0x0000000000000000        0xc bn_sprites_manager.o
 .group         0x0000000000000000        0xc bn_sprites_manager.o
 .group         0x0000000000000000        0xc bn_sprites_manager.o
 .group         0x0000000000000000        0xc bn_sprites_manager.o
 .group         0x0000000000000000        0xc bn_sprites_manager.o
 .group         0x0000000000000000        0xc bn_sprites_manager.o
 .group         0x0000000000000000        0xc bn_sprites_manager.o
 .group         0x0000000000000000        0xc bn_sprites_manager.o
 .group         0x0000000000000000        0xc bn_sprites_manager.o
 .group         0x0000000000000000        0xc bn_sprites_manager.o
 .group         0x0000000000000000        0xc bn_sprites_manager.o
 .group         0x0000000000000000        0xc bn_sprites_manager.o
 .group         0x0000000000000000        0xc bn_sprites_manager.o
 .group         0x0000000000000000        0xc bn_sprites_manager.o
 .group         0x0000000000000000        0xc bn_sprites_manager.o
 .group         0x0000000000000000        0xc bn_sprites_manager.o
 .group         0x0000000000000000        0xc bn_sprites_manager.o
 .group         0x0000000000000000        0xc bn_sprites_manager.o
 .group         0x0000000000000000        0xc bn_sprites_manager.o
 .group         0x0000000000000000        0xc bn_sprites_manager.o
 .group         0x0000000000000000        0xc bn_sprites_manager.o
 .group         0x0000000000000000        0xc bn_sprites_manager.o
 .group         0x0000000000000000        0xc bn_sprites_manager.o
 .group         0x0000000000000000        0xc bn_sprites_manager.o
 .group         0x0000000000000000        0xc bn_sprites_manager.o
 .group         0x0000000000000000        0xc bn_sprites_manager.o
 .group         0x0000000000000000        0xc bn_sprites_manager.o
 .group         0x0000000000000000        0xc bn_sprites_manager.o
 .group         0x0000000000000000        0xc bn_sprites_manager.o
 .group         0x0000000000000000        0xc bn_sprites_manager.o
 .group         0x0000000000000000        0xc bn_sprites_manager.o
 .group         0x0000000000000000        0xc bn_sprites_manager.o
 .text          0x0000000000000000        0x0 bn_sprites_manager.o
 .data          0x0000000000000000        0x0 bn_sprites_manager.o
 .bss           0x0000000000000000        0x0 bn_sprites_manager.o
 .text._ZN2bn15sprites_manager13remove_cameraEPv.part.0
                0x0000000000000000       0x70 bn_sprites_manager.o
 .text._ZN2bn15sprites_manager12_GLOBAL__N_123_update_item_shape_sizeERKNS_17sprite_shape_sizeERNS_20sprites_manager_itemE
                0x0000000000000000       0x7c bn_sprites_manager.o
 .text._ZN2bn7sprites16used_items_countEv
                0x0000000000000000        0xc bn_sprites_manager.o
 .text._ZN2bn7sprites21available_items_countEv
                0x0000000000000000       0x10 bn_sprites_manager.o
 .text._ZN2bn7sprites22reserved_handles_countEv
                0x0000000000000000       0x10 bn_sprites_manager.o
 .text._ZN2bn7sprites6reloadEv
                0x0000000000000000       0x24 bn_sprites_manager.o
 .text._ZNK2bn10sprite_ptr10shape_sizeEv
                0x0000000000000000       0x14 bn_sprites_manager.o
 .text._ZNK2bn10sprite_ptr1xEv
                0x0000000000000000        0x8 bn_sprites_manager.o
 .text._ZN2bn10sprite_ptr5set_xENS_7fixed_tILi12EEE
                0x0000000000000000       0x48 bn_sprites_manager.o
 .text._ZNK2bn10sprite_ptr1yEv
                0x0000000000000000        0x8 bn_sprites_manager.o
 .text._ZN2bn10sprite_ptr5set_yENS_7fixed_tILi12EEE
                0x0000000000000000       0x44 bn_sprites_manager.o
 .text._ZN2bn10sprite_ptr12set_positionENS_7fixed_tILi12EEES2_
                0x0000000000000000       0x6c bn_sprites_manager.o
 .text._ZNK2bn10sprite_ptr14rotation_angleEv
                0x0000000000000000       0x1c bn_sprites_manager.o
 .text._ZNK2bn10sprite_ptr16horizontal_scaleEv
                0x0000000000000000       0x1c bn_sprites_manager.o
 .text._ZNK2bn10sprite_ptr14vertical_scaleEv
                0x0000000000000000       0x1c bn_sprites_manager.o
 .text._ZNK2bn10sprite_ptr16horizontal_shearEv
                0x0000000000000000       0x1c bn_sprites_manager.o
 .text._ZNK2bn10sprite_ptr14vertical_shearEv
                0x0000000000000000       0x1c bn_sprites_manager.o
 .text._ZNK2bn10sprite_ptr11bg_priorityEv
                0x0000000000000000        0x8 bn_sprites_manager.o
 .text._ZNK2bn10sprite_ptr7z_orderEv
                0x0000000000000000       0x10 bn_sprites_manager.o
 .text._ZNK2bn10sprite_ptr13vertical_flipEv
                0x0000000000000000       0x20 bn_sprites_manager.o
 .text._ZN2bn10sprite_ptr17set_vertical_flipEb
                0x0000000000000000       0x40 bn_sprites_manager.o
 .text._ZNK2bn10sprite_ptr14mosaic_enabledEv
                0x0000000000000000        0xc bn_sprites_manager.o
 .text._ZN2bn10sprite_ptr18set_mosaic_enabledEb
                0x0000000000000000       0x68 bn_sprites_manager.o
 .text._ZNK2bn10sprite_ptr16blending_enabledEv
                0x0000000000000000        0xc bn_sprites_manager.o
 .text._ZNK2bn10sprite_ptr14window_enabledEv
                0x0000000000000000        0xc bn_sprites_manager.o
 .text._ZNK2bn10sprite_ptr11double_sizeEv
                0x0000000000000000        0xc bn_sprites_manager.o
 .text._ZNK2bn10sprite_ptr16double_size_modeEv
                0x0000000000000000        0xc bn_sprites_manager.o
 .text._ZNK2bn10sprite_ptr7visibleEv
                0x0000000000000000        0xc bn_sprites_manager.o
 .text._ZN2bn10sprite_ptr11set_visibleEb
                0x0000000000000000       0x64 bn_sprites_manager.o
 .text._ZNK2bn10sprite_ptr6cameraEv
                0x0000000000000000        0x8 bn_sprites_manager.o
 .text._ZN2bn10sprite_ptr13remove_cameraEv
                0x0000000000000000       0x78 bn_sprites_manager.o
 .text._ZNK2bn10sprite_ptr10affine_matEv
                0x0000000000000000        0x8 bn_sprites_manager.o
 .text._ZNK2bn10sprite_ptr33remove_affine_mat_when_not_neededEv
                0x0000000000000000        0xc bn_sprites_manager.o
 .text._ZN2bn10sprite_ptr37set_remove_affine_mat_when_not_neededEb
                0x0000000000000000       0x1c bn_sprites_manager.o
 .text._ZNK2bn11sprite_item10decompressENS_4spanINS_4tileEEENS1_INS_5colorEEE
                0x0000000000000000       0x4c bn_sprites_manager.o
 .text._ZN2bn14sprite_builderC2ERKNS_11sprite_itemE
                0x0000000000000000       0x6c bn_sprites_manager.o
 .text._ZNK2bn14sprite_builder14rotation_angleEv
                0x0000000000000000       0x18 bn_sprites_manager.o
 .text._ZNK2bn14sprite_builder16horizontal_scaleEv
                0x0000000000000000       0x1c bn_sprites_manager.o
 .text._ZNK2bn14sprite_builder14vertical_scaleEv
                0x0000000000000000       0x1c bn_sprites_manager.o
 .text._ZNK2bn14sprite_builder16horizontal_shearEv
                0x0000000000000000       0x18 bn_sprites_manager.o
 .text._ZN2bn14sprite_builder20set_horizontal_shearENS_7fixed_tILi12EEE
                0x0000000000000000       0xb8 bn_sprites_manager.o
 .text._ZNK2bn14sprite_builder14vertical_shearEv
                0x0000000000000000       0x18 bn_sprites_manager.o
 .text._ZN2bn14sprite_builder18set_vertical_shearENS_7fixed_tILi12EEE
                0x0000000000000000       0xb8 bn_sprites_manager.o
 .text._ZN2bn14sprite_builder9set_shearENS_7fixed_tILi12EEE
                0x0000000000000000       0xc0 bn_sprites_manager.o
 .text._ZN2bn14sprite_builder9set_shearENS_7fixed_tILi12EEES2_
                0x0000000000000000       0xc4 bn_sprites_manager.o
 .text._ZNK2bn14sprite_builder15horizontal_flipEv
                0x0000000000000000       0x1c bn_sprites_manager.o
 .text._ZN2bn14sprite_builder19set_horizontal_flipEb
                0x0000000000000000       0x1c bn_sprites_manager.o
 .text._ZNK2bn14sprite_builder13vertical_flipEv
                0x0000000000000000       0x1c bn_sprites_manager.o
 .text._ZN2bn14sprite_builder17set_vertical_flipEb
                0x0000000000000000       0x1c bn_sprites_manager.o
 .text._ZNK2bn14sprite_builder14tiles_optionalEv
                0x0000000000000000       0x94 bn_sprites_manager.o
 .text._ZNK2bn14sprite_builder16palette_optionalEv
                0x0000000000000000       0x88 bn_sprites_manager.o
 .text._ZN2bn14sprite_builder22release_tiles_optionalEv
                0x0000000000000000       0xa8 bn_sprites_manager.o
 .text._ZN2bn14sprite_builder24release_palette_optionalEv
                0x0000000000000000       0x9c bn_sprites_manager.o
 .text._ZN2bn14sprite_builder14set_affine_matERKNS_21sprite_affine_mat_ptrE
                0x0000000000000000       0x2c bn_sprites_manager.o
 .text._ZN2bn14sprite_builder14set_affine_matEONS_21sprite_affine_mat_ptrE
                0x0000000000000000       0x34 bn_sprites_manager.o
 .text._ZN2bn14sprite_builder14set_affine_matERKNS_8optionalINS_21sprite_affine_mat_ptrEEE
                0x0000000000000000       0x40 bn_sprites_manager.o
 .text._ZN2bn14sprite_builder14set_affine_matEONS_8optionalINS_21sprite_affine_mat_ptrEEE
                0x0000000000000000       0x48 bn_sprites_manager.o
 .text._ZN2bn31sprite_affine_second_attributesC2ENS_7fixed_tILi12EEERKNS_21sprite_affine_mat_ptrE
                0x0000000000000000       0x14 bn_sprites_manager.o
 .text._ZN2bn31sprite_affine_second_attributesC2ENS_7fixed_tILi12EEEONS_21sprite_affine_mat_ptrE
                0x0000000000000000       0x10 bn_sprites_manager.o
 .text._ZN2bn15sprites_manager16used_items_countEv
                0x0000000000000000        0xc bn_sprites_manager.o
 .text._ZN2bn15sprites_manager21available_items_countEv
                0x0000000000000000       0x10 bn_sprites_manager.o
 .text._ZN2bn15sprites_manager15increase_usagesEPv
                0x0000000000000000        0x8 bn_sprites_manager.o
 .text._ZN2bn15sprites_manager12remove_tilesEPv
                0x0000000000000000       0x1c bn_sprites_manager.o
 .text._ZN2bn15sprites_manager14remove_paletteEPv
                0x0000000000000000       0x1c bn_sprites_manager.o
 .text._ZN2bn15sprites_manager8positionEPv
                0x0000000000000000        0x4 bn_sprites_manager.o
 .text._ZN2bn15sprites_manager5set_xEPvNS_7fixed_tILi12EEE
                0x0000000000000000       0x44 bn_sprites_manager.o
 .text._ZN2bn15sprites_manager5set_yEPvNS_7fixed_tILi12EEE
                0x0000000000000000       0x44 bn_sprites_manager.o
 .text._ZN2bn15sprites_manager12set_positionEPvRKNS_11fixed_pointE
                0x0000000000000000       0x74 bn_sprites_manager.o
 .text._ZN2bn15sprites_manager11bg_priorityEPv
                0x0000000000000000        0x4 bn_sprites_manager.o
 .text._ZN2bn15sprites_manager7z_orderEPv
                0x0000000000000000       0x10 bn_sprites_manager.o
 .text._ZN2bn15sprites_manager15horizontal_flipEPv
                0x0000000000000000       0x20 bn_sprites_manager.o
 .text._ZN2bn15sprites_manager19set_horizontal_flipEPvb
                0x0000000000000000       0x40 bn_sprites_manager.o
 .text._ZN2bn15sprites_manager13vertical_flipEPv
                0x0000000000000000       0x20 bn_sprites_manager.o
 .text._ZN2bn15sprites_manager17set_vertical_flipEPvb
                0x0000000000000000       0x40 bn_sprites_manager.o
 .text._ZN2bn15sprites_manager14mosaic_enabledEPv
                0x0000000000000000        0x8 bn_sprites_manager.o
 .text._ZN2bn15sprites_manager18set_mosaic_enabledEPvb
                0x0000000000000000       0x68 bn_sprites_manager.o
 .text._ZN2bn15sprites_manager16blending_enabledEPv
                0x0000000000000000        0xc bn_sprites_manager.o
 .text._ZN2bn15sprites_manager14window_enabledEPv
                0x0000000000000000        0x8 bn_sprites_manager.o
 .text._ZN2bn15sprites_manager11double_sizeEPv
                0x0000000000000000        0xc bn_sprites_manager.o
 .text._ZN2bn15sprites_manager16double_size_modeEPv
                0x0000000000000000        0xc bn_sprites_manager.o
 .text._ZN2bn15sprites_manager7visibleEPv
                0x0000000000000000        0xc bn_sprites_manager.o
 .text._ZN2bn15sprites_manager11set_visibleEPvb
                0x0000000000000000       0x60 bn_sprites_manager.o
 .text._ZN2bn15sprites_manager6cameraEPv
                0x0000000000000000        0x4 bn_sprites_manager.o
 .text._ZN2bn10sprite_ptr10set_cameraEONS_10camera_ptrE
                0x0000000000000000       0x10 bn_sprites_manager.o
 .text._ZN2bn10sprite_ptr10set_cameraERKNS_8optionalINS_10camera_ptrEEE
                0x0000000000000000       0x3c bn_sprites_manager.o
 .text._ZN2bn10sprite_ptr10set_cameraEONS_8optionalINS_10camera_ptrEEE
                0x0000000000000000       0x24 bn_sprites_manager.o
 .text._ZN2bn15sprites_manager13remove_cameraEPv
                0x0000000000000000       0x78 bn_sprites_manager.o
 .text._ZN2bn15sprites_manager33remove_affine_mat_when_not_neededEPv
                0x0000000000000000        0xc bn_sprites_manager.o
 .text._ZN2bn15sprites_manager37set_remove_affine_mat_when_not_neededEPvb
                0x0000000000000000       0x1c bn_sprites_manager.o
 .text._ZN2bn15sprites_manager22reserved_handles_countEv
                0x0000000000000000       0x10 bn_sprites_manager.o
 .text._ZN2bn15sprites_manager6reloadEPv
                0x0000000000000000       0x48 bn_sprites_manager.o
 .text._ZN2bn15sprites_manager15reload_blendingEv
                0x0000000000000000       0x94 bn_sprites_manager.o
 .text._ZN2bn15sprites_manager10reload_allEv
                0x0000000000000000       0x24 bn_sprites_manager.o
 .text._ZN2bn15sprites_manager29update_affine_mat_double_sizeEPvi
                0x0000000000000000       0x64 bn_sprites_manager.o
 .rodata._ZN2bn14sprite_builder20set_blending_enabledEb.str1.4
                0x0000000000000000       0x8e bn_sprites_manager.o
 .text._ZN2bn14sprite_builder20set_blending_enabledEb
                0x0000000000000000       0x3c bn_sprites_manager.o
 .rodata._ZN2bn14sprite_builder18set_window_enabledEb.str1.4
                0x0000000000000000       0x3c bn_sprites_manager.o
 .text._ZN2bn14sprite_builder18set_window_enabledEb
                0x0000000000000000       0x3c bn_sprites_manager.o
 .text._ZN2bn15sprites_manager20set_blending_enabledEPvb
                0x0000000000000000       0x88 bn_sprites_manager.o
 .rodata._ZN2bn15sprites_manager18set_window_enabledEPvb.str1.4
                0x0000000000000000       0x2d bn_sprites_manager.o
 .text._ZN2bn15sprites_manager18set_window_enabledEPvb
                0x0000000000000000       0x98 bn_sprites_manager.o
 .text._ZN2bn15sprites_manager20set_first_attributesEPvRKNS_23sprite_first_attributesE
                0x0000000000000000       0xdc bn_sprites_manager.o
 .text._ZN2bn10sprite_ptr20set_first_attributesERKNS_23sprite_first_attributesE
                0x0000000000000000       0x10 bn_sprites_manager.o
 .rodata._ZN2bn15sprites_manager16first_attributesEPv.str1.4
                0x0000000000000000       0x5f bn_sprites_manager.o
 .text._ZN2bn15sprites_manager16first_attributesEPv
                0x0000000000000000       0x60 bn_sprites_manager.o
 .text._ZNK2bn10sprite_ptr16first_attributesEv
                0x0000000000000000       0x60 bn_sprites_manager.o
 .text._ZN2bn10sprite_ptr18set_window_enabledEb
                0x0000000000000000       0x98 bn_sprites_manager.o
 .text._ZN2bn10sprite_ptr20set_blending_enabledEb
                0x0000000000000000       0x88 bn_sprites_manager.o
 .text._ZN3_bn6assert9show_argsIA16_ciEEvPKcS4_S4_iRKT_RKT0_
                0x0000000000000000       0x58 bn_sprites_manager.o
 .text._ZN3_bn6assert9show_argsIA15_ciEEvPKcS4_S4_iRKT_RKT0_
                0x0000000000000000       0x58 bn_sprites_manager.o
 .text._ZN3_bn6assert9show_argsIA25_ciEEvPKcS4_S4_iRKT_RKT0_
                0x0000000000000000       0x58 bn_sprites_manager.o
 .text._ZN3_bn6assert9show_argsIA22_cEEvPKcS4_S4_iRKT_
                0x0000000000000000       0x50 bn_sprites_manager.o
 .text._ZN2bn15sprites_manager17remove_affine_matEPv
                0x0000000000000000       0x18 bn_sprites_manager.o
 .text._ZN2bn10sprite_ptr17remove_affine_matEv
                0x0000000000000000       0x1c bn_sprites_manager.o
 .text._ZN2bn14sprite_builder15release_paletteEv
                0x0000000000000000       0x78 bn_sprites_manager.o
 .text._ZN2bn14sprite_builder13release_tilesEv
                0x0000000000000000       0x78 bn_sprites_manager.o
 .text._ZN2bn15sprites_manager5tilesEPv
                0x0000000000000000       0x34 bn_sprites_manager.o
 .text._ZNK2bn10sprite_ptr5tilesEv
                0x0000000000000000       0x38 bn_sprites_manager.o
 .text._ZNK2bn10sprite_ptr7paletteEv
                0x0000000000000000       0x38 bn_sprites_manager.o
 .text._ZNK2bn14sprite_builder7paletteEv
                0x0000000000000000       0x4c bn_sprites_manager.o
 .text._ZNK2bn14sprite_builder5tilesEv
                0x0000000000000000       0x4c bn_sprites_manager.o
 .text._ZN3_bn6assert9show_argsIA27_ciEEvPKcS4_S4_iRKT_RKT0_
                0x0000000000000000       0x58 bn_sprites_manager.o
 .text._ZN2bn20sprites_manager_item13_builder_initERKNS_14sprite_builderE
                0x0000000000000000      0x36c bn_sprites_manager.o
 .text._ZNK2bn20sprites_manager_item15new_double_sizeEi.part.0
                0x0000000000000000       0x2c bn_sprites_manager.o
 .text._ZN2bn15sprites_manager20set_double_size_modeEPvNS_23sprite_double_size_modeE
                0x0000000000000000       0x94 bn_sprites_manager.o
 .text._ZN2bn15sprites_manager12_GLOBAL__N_118_assign_affine_matERNS_20sprites_manager_itemEONS_21sprite_affine_mat_ptrE
                0x0000000000000000       0xf8 bn_sprites_manager.o
 .text._ZN2bn15sprites_manager18set_new_affine_matEPvRNS_21affine_mat_attributesE
                0x0000000000000000       0x9c bn_sprites_manager.o
 .text._ZN2bn10sprite_ptr20set_horizontal_shearENS_7fixed_tILi12EEE
                0x0000000000000000       0x4c bn_sprites_manager.o
 .text._ZN2bn10sprite_ptr18set_vertical_shearENS_7fixed_tILi12EEE
                0x0000000000000000       0x4c bn_sprites_manager.o
 .text._ZN2bn10sprite_ptr9set_shearENS_7fixed_tILi12EEE
                0x0000000000000000       0x54 bn_sprites_manager.o
 .text._ZN2bn10sprite_ptr9set_shearENS_7fixed_tILi12EEES2_
                0x0000000000000000       0x54 bn_sprites_manager.o
 .text._ZN2bn15sprites_manager14set_affine_matEPvRKNS_21sprite_affine_mat_ptrE
                0x0000000000000000       0x3c bn_sprites_manager.o
 .text._ZN2bn15sprites_manager14set_affine_matEPvONS_21sprite_affine_mat_ptrE
                0x0000000000000000       0x24 bn_sprites_manager.o
 .text._ZN2bn10sprite_ptr14set_affine_matEONS_21sprite_affine_mat_ptrE
                0x0000000000000000       0x30 bn_sprites_manager.o
 .text._ZN2bn10sprite_ptr14set_affine_matEONS_8optionalINS_21sprite_affine_mat_ptrEEE
                0x0000000000000000       0x48 bn_sprites_manager.o
 .text._ZN2bn10sprite_ptr14set_affine_matERKNS_8optionalINS_21sprite_affine_mat_ptrEEE
                0x0000000000000000       0x60 bn_sprites_manager.o
 .text._ZN2bn10sprite_ptr14set_affine_matERKNS_21sprite_affine_mat_ptrE
                0x0000000000000000       0x44 bn_sprites_manager.o
 .text._ZN2bn10sprite_ptr20set_double_size_modeENS_23sprite_double_size_modeE
                0x0000000000000000       0x94 bn_sprites_manager.o
 .text._ZN3_bn6assert9show_argsIA37_cEEvPKcS4_S4_iRKT_
                0x0000000000000000       0x50 bn_sprites_manager.o
 .text._ZN3_bn6assert9show_argsIA17_ciEEvPKcS4_S4_iRKT_RKT0_
                0x0000000000000000       0x58 bn_sprites_manager.o
 .rodata._ZNK2bn10sprite_ptr10dimensionsEv.str1.4
                0x0000000000000000       0x4d bn_sprites_manager.o
 .text._ZNK2bn10sprite_ptr10dimensionsEv
                0x0000000000000000       0x68 bn_sprites_manager.o
 .text._ZN2bn15sprites_manager10dimensionsEPv
                0x0000000000000000       0x68 bn_sprites_manager.o
 .text._ZN3_bn6assert9show_argsIA18_ciEEvPKcS4_S4_iRKT_RKT0_
                0x0000000000000000       0x58 bn_sprites_manager.o
 .rodata._ZN2bn14sprite_builder11set_z_orderEi.str1.4
                0x0000000000000000       0x66 bn_sprites_manager.o
 .text._ZN2bn14sprite_builder11set_z_orderEi
                0x0000000000000000       0x48 bn_sprites_manager.o
 .text._ZN3_bn6assert9show_argsIJA22_ciA4_ciEEEvPKcS5_S5_iDpRKT_
                0x0000000000000000       0x5c bn_sprites_manager.o
 .text._ZN2bn14sprite_builderC2ERKNS_17sprite_shape_sizeENS_16sprite_tiles_ptrENS_18sprite_palette_ptrE
                0x0000000000000000      0x118 bn_sprites_manager.o
 .text._ZN2bn15sprites_manager9set_tilesEPvRKNS_16sprite_tiles_ptrE
                0x0000000000000000      0x114 bn_sprites_manager.o
 .text._ZN2bn10sprite_ptr9set_tilesERKNS_16sprite_tiles_ptrE
                0x0000000000000000       0x10 bn_sprites_manager.o
 .text._ZN2bn10sprite_ptr9set_tilesERKNS_17sprite_tiles_itemE
                0x0000000000000000       0x74 bn_sprites_manager.o
 .text._ZN3_bn6assert9show_argsIJA25_ciA4_ciEEEvPKcS5_S5_iDpRKT_
                0x0000000000000000       0x5c bn_sprites_manager.o
 .rodata._ZN2bn14sprite_builderC2ERKNS_11sprite_itemEi.str1.4
                0x0000000000000000       0x64 bn_sprites_manager.o
 .text._ZN2bn14sprite_builderC2ERKNS_11sprite_itemEi
                0x0000000000000000       0xc8 bn_sprites_manager.o
 .text._ZN3_bn6assert9show_argsIA22_ciEEvPKcS4_S4_iRKT_RKT0_
                0x0000000000000000       0x58 bn_sprites_manager.o
 .rodata._ZN2bn14sprite_builder15set_bg_priorityEi.str1.4
                0x0000000000000000       0x66 bn_sprites_manager.o
 .text._ZN2bn14sprite_builder15set_bg_priorityEi
                0x0000000000000000       0x38 bn_sprites_manager.o
 .rodata._ZN2bn23sprite_third_attributesC2ENS_16sprite_tiles_ptrENS_18sprite_palette_ptrEi.str1.4
                0x0000000000000000       0x39 bn_sprites_manager.o
 .text._ZN2bn23sprite_third_attributesC2ENS_16sprite_tiles_ptrENS_18sprite_palette_ptrEi
                0x0000000000000000       0x4c bn_sprites_manager.o
 .text._ZN2bn23sprite_third_attributes15set_bg_priorityEi
                0x0000000000000000       0x38 bn_sprites_manager.o
 .text._ZN2bn15sprites_manager16third_attributesEPv
                0x0000000000000000       0xa4 bn_sprites_manager.o
 .text._ZNK2bn10sprite_ptr16third_attributesEv
                0x0000000000000000       0x14 bn_sprites_manager.o
 .text._ZN3_bn6assert9show_argsIA27_cEEvPKcS4_S4_iRKT_
                0x0000000000000000       0x50 bn_sprites_manager.o
 .text._ZN3_bn6assert9show_argsIA31_cEEvPKcS4_S4_iRKT_
                0x0000000000000000       0x50 bn_sprites_manager.o
 .text._ZN3_bn6assert9show_argsIJA30_ciA4_ciEEEvPKcS5_S5_iDpRKT_
                0x0000000000000000       0x5c bn_sprites_manager.o
 .rodata._ZN2bn15sprites_manager9set_tilesEPvRKNS_17sprite_shape_sizeERKNS_16sprite_tiles_ptrE.str1.4
                0x0000000000000000       0x62 bn_sprites_manager.o
 .text._ZN2bn15sprites_manager9set_tilesEPvRKNS_17sprite_shape_sizeERKNS_16sprite_tiles_ptrE
                0x0000000000000000      0x128 bn_sprites_manager.o
 .text._ZN2bn10sprite_ptr9set_tilesERKNS_17sprite_shape_sizeERKNS_16sprite_tiles_ptrE
                0x0000000000000000       0x10 bn_sprites_manager.o
 .text._ZN2bn15sprites_manager9set_tilesEPvRKNS_17sprite_shape_sizeEONS_16sprite_tiles_ptrE
                0x0000000000000000      0x134 bn_sprites_manager.o
 .text._ZN2bn10sprite_ptr9set_tilesERKNS_17sprite_shape_sizeEONS_16sprite_tiles_ptrE
                0x0000000000000000       0x10 bn_sprites_manager.o
 .text._ZN2bn10sprite_ptr9set_tilesERKNS_17sprite_tiles_itemERKNS_17sprite_shape_sizeE
                0x0000000000000000       0x80 bn_sprites_manager.o
 .text._ZN2bn10sprite_ptr9set_tilesERKNS_17sprite_tiles_itemERKNS_17sprite_shape_sizeEi
                0x0000000000000000       0x90 bn_sprites_manager.o
 .text._ZN3_bn6assert9show_argsIJA28_ciA4_ciEEEvPKcS5_S5_iDpRKT_
                0x0000000000000000       0x5c bn_sprites_manager.o
 .rodata._ZN2bn15sprites_manager11set_paletteEPvNS_8bpp_modeERKNS_18sprite_palette_ptrE.str1.4
                0x0000000000000000       0x44 bn_sprites_manager.o
 .text._ZN2bn15sprites_manager11set_paletteEPvNS_8bpp_modeERKNS_18sprite_palette_ptrE
                0x0000000000000000       0x9c bn_sprites_manager.o
 .text._ZN2bn10sprite_ptr11set_paletteERKNS_18sprite_palette_ptrE
                0x0000000000000000       0x4c bn_sprites_manager.o
 .text._ZN2bn15sprites_manager11set_paletteEPvNS_8bpp_modeEONS_18sprite_palette_ptrE
                0x0000000000000000       0xa4 bn_sprites_manager.o
 .text._ZN2bn10sprite_ptr11set_paletteEONS_18sprite_palette_ptrE
                0x0000000000000000       0x4c bn_sprites_manager.o
 .text._ZN2bn10sprite_ptr11set_paletteERKNS_19sprite_palette_itemE
                0x0000000000000000       0xdc bn_sprites_manager.o
 .text._ZN3_bn6assert9show_argsIJA39_ciA4_ciEEEvPKcS5_S5_iDpRKT_
                0x0000000000000000       0x5c bn_sprites_manager.o
 .rodata._ZN2bn15sprites_manager21set_tiles_and_paletteEPvRKNS_17sprite_shape_sizeEONS_16sprite_tiles_ptrEONS_18sprite_palette_ptrE.str1.4
                0x0000000000000000       0x73 bn_sprites_manager.o
 .text._ZN2bn15sprites_manager21set_tiles_and_paletteEPvRKNS_17sprite_shape_sizeEONS_16sprite_tiles_ptrEONS_18sprite_palette_ptrE
                0x0000000000000000      0x1e4 bn_sprites_manager.o
 .text._ZN2bn10sprite_ptr21set_tiles_and_paletteENS_16sprite_tiles_ptrENS_18sprite_palette_ptrE
                0x0000000000000000       0x28 bn_sprites_manager.o
 .text._ZN2bn10sprite_ptr21set_tiles_and_paletteERKNS_17sprite_shape_sizeENS_16sprite_tiles_ptrENS_18sprite_palette_ptrE
                0x0000000000000000       0x10 bn_sprites_manager.o
 .text._ZN2bn10sprite_ptr8set_itemERKNS_11sprite_itemE
                0x0000000000000000      0x160 bn_sprites_manager.o
 .text._ZN2bn10sprite_ptr8set_itemERKNS_11sprite_itemEi
                0x0000000000000000      0x164 bn_sprites_manager.o
 .text._ZN3_bn6assert9show_argsIA20_cEEvPKcS4_S4_iRKT_
                0x0000000000000000       0x50 bn_sprites_manager.o
 .rodata._ZN2bn15sprites_manager25regular_second_attributesEPv.str1.4
                0x0000000000000000       0x44 bn_sprites_manager.o
 .text._ZN2bn15sprites_manager25regular_second_attributesEPv
                0x0000000000000000       0x4c bn_sprites_manager.o
 .rodata._ZN2bn15sprites_manager29set_regular_second_attributesEPvRKNS_32sprite_regular_second_attributesE.str1.4
                0x0000000000000000       0x1e bn_sprites_manager.o
 .text._ZN2bn15sprites_manager29set_regular_second_attributesEPvRKNS_32sprite_regular_second_attributesE
                0x0000000000000000       0xf4 bn_sprites_manager.o
 .text._ZN2bn10sprite_ptr29set_regular_second_attributesERKNS_32sprite_regular_second_attributesE
                0x0000000000000000       0x10 bn_sprites_manager.o
 .text._ZNK2bn10sprite_ptr25regular_second_attributesEv
                0x0000000000000000       0x50 bn_sprites_manager.o
 .text._ZN3_bn6assert9show_argsIA19_cEEvPKcS4_S4_iRKT_
                0x0000000000000000       0x50 bn_sprites_manager.o
 .rodata._ZN2bn15sprites_manager24affine_second_attributesEPv.str1.4
                0x0000000000000000       0x43 bn_sprites_manager.o
 .text._ZN2bn15sprites_manager24affine_second_attributesEPv
                0x0000000000000000       0x48 bn_sprites_manager.o
 .rodata._ZN2bn15sprites_manager28set_affine_second_attributesEPvRKNS_31sprite_affine_second_attributesE.str1.4
                0x0000000000000000       0x1d bn_sprites_manager.o
 .text._ZN2bn15sprites_manager28set_affine_second_attributesEPvRKNS_31sprite_affine_second_attributesE
                0x0000000000000000       0xac bn_sprites_manager.o
 .text._ZNK2bn10sprite_ptr24affine_second_attributesEv
                0x0000000000000000       0x48 bn_sprites_manager.o
 .text._ZN2bn10sprite_ptr28set_affine_second_attributesERKNS_31sprite_affine_second_attributesE
                0x0000000000000000       0xac bn_sprites_manager.o
 .text._ZN3_bn6assert9show_argsIA33_ciEEvPKcS4_S4_iRKT_RKT0_
                0x0000000000000000       0x58 bn_sprites_manager.o
 .rodata._ZN2bn15sprites_manager26set_reserved_handles_countEi.str1.4
                0x0000000000000000       0x8d bn_sprites_manager.o
 .text._ZN2bn15sprites_manager26set_reserved_handles_countEi
                0x0000000000000000       0xa8 bn_sprites_manager.o
 .text._ZN2bn7sprites26set_reserved_handles_countEi
                0x0000000000000000       0xa8 bn_sprites_manager.o
 .text._ZN3_bn6assert9show_argsIA13_cEEvPKcS4_S4_iRKT_
                0x0000000000000000       0x50 bn_sprites_manager.o
 .text._ZN2bn15sprites_manager15create_optionalEONS_14sprite_builderE
                0x0000000000000000      0x19c bn_sprites_manager.o
 .text._ZN2bn15sprites_manager6createEONS_14sprite_builderE
                0x0000000000000000      0x180 bn_sprites_manager.o
 .text._ZN2bn10sprite_ptr6createERKNS_14sprite_builderE
                0x0000000000000000       0xf8 bn_sprites_manager.o
 .text._ZN2bn10sprite_ptr6createEONS_14sprite_builderE
                0x0000000000000000       0x14 bn_sprites_manager.o
 .text._ZN2bn14sprite_builder13release_buildEv
                0x0000000000000000       0x14 bn_sprites_manager.o
 .text._ZNK2bn14sprite_builder5buildEv
                0x0000000000000000       0xf8 bn_sprites_manager.o
 .text._ZN2bn10sprite_ptr6createENS_7fixed_tILi12EEES2_RKNS_11sprite_itemE
                0x0000000000000000       0x44 bn_sprites_manager.o
 .text._ZN2bn10sprite_ptr6createENS_7fixed_tILi12EEES2_RKNS_11sprite_itemEi
                0x0000000000000000       0x48 bn_sprites_manager.o
 .text._ZN2bn10sprite_ptr6createERKNS_11fixed_pointERKNS_11sprite_itemE
                0x0000000000000000       0x44 bn_sprites_manager.o
 .text._ZN2bn10sprite_ptr6createERKNS_11fixed_pointERKNS_11sprite_itemEi
                0x0000000000000000       0x44 bn_sprites_manager.o
 .rodata._ZN2bn10sprite_ptr6createENS_7fixed_tILi12EEES2_RKNS_17sprite_shape_sizeENS_16sprite_tiles_ptrENS_18sprite_palette_ptrE.str1.4
                0x0000000000000000       0x51 bn_sprites_manager.o
 .text._ZN2bn10sprite_ptr6createENS_7fixed_tILi12EEES2_RKNS_17sprite_shape_sizeENS_16sprite_tiles_ptrENS_18sprite_palette_ptrE
                0x0000000000000000       0x94 bn_sprites_manager.o
 .text._ZN2bn10sprite_ptr6createERKNS_11fixed_pointERKNS_17sprite_shape_sizeENS_16sprite_tiles_ptrENS_18sprite_palette_ptrE
                0x0000000000000000       0x90 bn_sprites_manager.o
 .text._ZNK2bn11sprite_item13create_spriteERKNS_11fixed_pointEi
                0x0000000000000000       0x44 bn_sprites_manager.o
 .text._ZNK2bn11sprite_item13create_spriteERKNS_11fixed_pointE
                0x0000000000000000       0x40 bn_sprites_manager.o
 .text._ZNK2bn11sprite_item13create_spriteENS_7fixed_tILi12EEES2_i
                0x0000000000000000       0x44 bn_sprites_manager.o
 .text._ZN2bn15sprites_manager15create_optionalERKNS_11fixed_pointERKNS_17sprite_shape_sizeEONS_16sprite_tiles_ptrEONS_18sprite_palette_ptrE
                0x0000000000000000      0x1c0 bn_sprites_manager.o
 .text._ZN3_bn6assert9show_argsIA14_cEEvPKcS4_S4_iRKT_
                0x0000000000000000       0x50 bn_sprites_manager.o
 .text._ZN2bn15sprites_manager9put_aboveEPv
                0x0000000000000000       0x74 bn_sprites_manager.o
 .text._ZN2bn10sprite_ptr9put_aboveEv
                0x0000000000000000       0x10 bn_sprites_manager.o
 .rodata._ZN2bn15sprites_manager9put_belowEPv.str1.4
                0x0000000000000000        0x5 bn_sprites_manager.o
 .text._ZN2bn15sprites_manager9put_belowEPv
                0x0000000000000000       0x74 bn_sprites_manager.o
 .text._ZN2bn10sprite_ptr9put_belowEv
                0x0000000000000000       0x10 bn_sprites_manager.o
 .text._ZN3_bn6assert9show_argsIA33_cEEvPKcS4_S4_iRKT_
                0x0000000000000000       0x50 bn_sprites_manager.o
 .text._ZN2bn15sprites_manager15set_bg_priorityEPvi
                0x0000000000000000      0x148 bn_sprites_manager.o
 .text._ZN2bn10sprite_ptr15set_bg_priorityEi
                0x0000000000000000       0x10 bn_sprites_manager.o
 .text._ZN2bn15sprites_manager20set_third_attributesEPvRKNS_23sprite_third_attributesE
                0x0000000000000000       0x50 bn_sprites_manager.o
 .text._ZN2bn10sprite_ptr20set_third_attributesERKNS_23sprite_third_attributesE
                0x0000000000000000       0x10 bn_sprites_manager.o
 .text._ZN2bn10sprite_ptraSERKS0_
                0x0000000000000000       0x28 bn_sprites_manager.o
 .text._ZN2bn10sprite_ptr15create_optionalERKNS_11fixed_pointERKNS_11sprite_itemE
                0x0000000000000000       0xd4 bn_sprites_manager.o
 .text._ZN2bn10sprite_ptr15create_optionalENS_7fixed_tILi12EEES2_RKNS_11sprite_itemE
                0x0000000000000000       0x1c bn_sprites_manager.o
 .text._ZNK2bn11sprite_item22create_sprite_optionalENS_7fixed_tILi12EEES2_
                0x0000000000000000       0x1c bn_sprites_manager.o
 .text._ZNK2bn11sprite_item22create_sprite_optionalERKNS_11fixed_pointE
                0x0000000000000000       0x18 bn_sprites_manager.o
 .text._ZN2bn10sprite_ptr15create_optionalERKNS_11fixed_pointERKNS_11sprite_itemEi
                0x0000000000000000       0xd8 bn_sprites_manager.o
 .text._ZN2bn10sprite_ptr15create_optionalENS_7fixed_tILi12EEES2_RKNS_11sprite_itemEi
                0x0000000000000000       0x24 bn_sprites_manager.o
 .text._ZNK2bn11sprite_item22create_sprite_optionalENS_7fixed_tILi12EEES2_i
                0x0000000000000000       0x20 bn_sprites_manager.o
 .text._ZNK2bn11sprite_item22create_sprite_optionalERKNS_11fixed_pointEi
                0x0000000000000000       0x18 bn_sprites_manager.o
 .rodata._ZN2bn10sprite_ptr15create_optionalENS_7fixed_tILi12EEES2_RKNS_17sprite_shape_sizeENS_16sprite_tiles_ptrENS_18sprite_palette_ptrE.str1.4
                0x0000000000000000       0x10 bn_sprites_manager.o
 .text._ZN2bn10sprite_ptr15create_optionalENS_7fixed_tILi12EEES2_RKNS_17sprite_shape_sizeENS_16sprite_tiles_ptrENS_18sprite_palette_ptrE
                0x0000000000000000       0xbc bn_sprites_manager.o
 .text._ZN2bn10sprite_ptr15create_optionalERKNS_11fixed_pointERKNS_17sprite_shape_sizeENS_16sprite_tiles_ptrENS_18sprite_palette_ptrE
                0x0000000000000000       0xb4 bn_sprites_manager.o
 .text._ZN2bn10sprite_ptr15create_optionalERKNS_14sprite_builderE
                0x0000000000000000      0x11c bn_sprites_manager.o
 .text._ZNK2bn14sprite_builder14build_optionalEv
                0x0000000000000000       0x10 bn_sprites_manager.o
 .text._ZN2bn10sprite_ptr15create_optionalEONS_14sprite_builderE
                0x0000000000000000       0x3c bn_sprites_manager.o
 .text._ZN2bn14sprite_builder22release_build_optionalEv
                0x0000000000000000       0x3c bn_sprites_manager.o
 .text._ZN2bn10sprite_ptr11set_z_orderEi
                0x0000000000000000      0x14c bn_sprites_manager.o
 .text._ZN2bn15sprites_manager11set_z_orderEPvi
                0x0000000000000000      0x150 bn_sprites_manager.o
 .text._ZN2bn13ostringstream6appendILi12EEEvNS_7fixed_tIXT_EEE
                0x0000000000000000       0xa0 bn_sprites_manager.o
 .text._ZN3_bn6assert9show_argsIA38_cN2bn7fixed_tILi12EEEEEvPKcS7_S7_iRKT_RKT0_
                0x0000000000000000       0x58 bn_sprites_manager.o
 .rodata._ZN2bn14sprite_builder18set_rotation_angleENS_7fixed_tILi12EEE.str1.4
                0x0000000000000000       0x76 bn_sprites_manager.o
 .text._ZN2bn14sprite_builder18set_rotation_angleENS_7fixed_tILi12EEE
                0x0000000000000000      0x13c bn_sprites_manager.o
 .text._ZN2bn10sprite_ptr18set_rotation_angleENS_7fixed_tILi12EEE
                0x0000000000000000       0xc0 bn_sprites_manager.o
 .text._ZN3_bn6assert9show_argsIA27_cN2bn7fixed_tILi12EEEEEvPKcS7_S7_iRKT_RKT0_
                0x0000000000000000       0x58 bn_sprites_manager.o
 .text._ZN3_bn6assert9show_argsIA25_cN2bn7fixed_tILi12EEEEEvPKcS7_S7_iRKT_RKT0_
                0x0000000000000000       0x58 bn_sprites_manager.o
 .text._ZN3_bn6assert9show_argsIA16_cN2bn7fixed_tILi12EEEEEvPKcS7_S7_iRKT_RKT0_
                0x0000000000000000       0x58 bn_sprites_manager.o
 .text._ZN3_bn6assert9show_argsIA31_ciEEvPKcS4_S4_iRKT_RKT0_
                0x0000000000000000       0x58 bn_sprites_manager.o
 .rodata._ZN2bn10sprite_ptr20set_horizontal_scaleENS_7fixed_tILi12EEE.str1.4
                0x0000000000000000       0x67 bn_sprites_manager.o
 .text._ZN2bn10sprite_ptr20set_horizontal_scaleENS_7fixed_tILi12EEE
                0x0000000000000000       0xb8 bn_sprites_manager.o
 .rodata._ZN2bn14sprite_builder18set_vertical_scaleENS_7fixed_tILi12EEE.str1.4
                0x0000000000000000       0x41 bn_sprites_manager.o
 .text._ZN2bn14sprite_builder18set_vertical_scaleENS_7fixed_tILi12EEE
                0x0000000000000000      0x110 bn_sprites_manager.o
 .text._ZN2bn14sprite_builder20set_horizontal_scaleENS_7fixed_tILi12EEE
                0x0000000000000000      0x110 bn_sprites_manager.o
 .rodata._ZN2bn14sprite_builder9set_scaleENS_7fixed_tILi12EEE.str1.4
                0x0000000000000000       0x28 bn_sprites_manager.o
 .text._ZN2bn14sprite_builder9set_scaleENS_7fixed_tILi12EEE
                0x0000000000000000      0x114 bn_sprites_manager.o
 .text._ZN2bn21affine_mat_attributes9set_scaleENS_7fixed_tILi12EEES2_
                0x0000000000000000      0x108 bn_sprites_manager.o
 .text._ZN2bn10sprite_ptr9set_scaleENS_7fixed_tILi12EEES2_
                0x0000000000000000       0x5c bn_sprites_manager.o
 .text._ZN2bn14sprite_builder9set_scaleENS_7fixed_tILi12EEES2_
                0x0000000000000000       0xc0 bn_sprites_manager.o
 .text._ZN2bn10sprite_ptr18set_vertical_scaleENS_7fixed_tILi12EEE
                0x0000000000000000       0xb8 bn_sprites_manager.o
 .text._ZN2bn10sprite_ptr9set_scaleENS_7fixed_tILi12EEE
                0x0000000000000000       0xbc bn_sprites_manager.o
 .rodata        0x0000000000000000       0x28 bn_sprites_manager.o
 .group         0x0000000000000000        0xc bn_sprite_text_generator.o
 .group         0x0000000000000000        0xc bn_sprite_text_generator.o
 .group         0x0000000000000000        0xc bn_sprite_text_generator.o
 .group         0x0000000000000000        0xc bn_sprite_text_generator.o
 .group         0x0000000000000000        0xc bn_sprite_text_generator.o
 .group         0x0000000000000000        0xc bn_sprite_text_generator.o
 .group         0x0000000000000000        0xc bn_sprite_text_generator.o
 .group         0x0000000000000000        0xc bn_sprite_text_generator.o
 .group         0x0000000000000000        0xc bn_sprite_text_generator.o
 .group         0x0000000000000000        0xc bn_sprite_text_generator.o
 .group         0x0000000000000000        0xc bn_sprite_text_generator.o
 .group         0x0000000000000000        0xc bn_sprite_text_generator.o
 .group         0x0000000000000000        0xc bn_sprite_text_generator.o
 .group         0x0000000000000000        0xc bn_sprite_text_generator.o
 .group         0x0000000000000000        0xc bn_sprite_text_generator.o
 .group         0x0000000000000000        0xc bn_sprite_text_generator.o
 .group         0x0000000000000000        0xc bn_sprite_text_generator.o
 .text          0x0000000000000000        0x0 bn_sprite_text_generator.o
 .data          0x0000000000000000        0x0 bn_sprite_text_generator.o
 .bss           0x0000000000000000        0x0 bn_sprite_text_generator.o
 .text._ZN3_bn6assert9show_argsIA15_ciEEvPKcS4_S4_iRKT_RKT0_
                0x0000000000000000       0x58 bn_sprite_text_generator.o
 .text._ZN3_bn6assert9show_argsIA16_ciEEvPKcS4_S4_iRKT_RKT0_
                0x0000000000000000       0x58 bn_sprite_text_generator.o
 .rodata._ZN2bn21sprite_text_generator5_initEv.str1.4
                0x0000000000000000       0x44 bn_sprite_text_generator.o
 .text._ZN2bn21sprite_text_generator5_initEv
                0x0000000000000000      0x1a8 bn_sprite_text_generator.o
 .text._ZN2bn21sprite_text_generatorC2ERKNS_11sprite_fontE
                0x0000000000000000       0x2c bn_sprite_text_generator.o
 .text._ZN3_bn6assert9show_argsIA25_ciEEvPKcS4_S4_iRKT_RKT0_
                0x0000000000000000       0x58 bn_sprite_text_generator.o
 .text._ZN3_bn6assert9show_argsIA54_cEEvPKcS4_S4_iRKT_
                0x0000000000000000       0x50 bn_sprite_text_generator.o
 .text._ZN3_bn6assert9show_argsIA22_cEEvPKcS4_S4_iRKT_
                0x0000000000000000       0x50 bn_sprite_text_generator.o
 .text._ZN3_bn6assert9show_argsIA24_cEEvPKcS4_S4_iRKT_
                0x0000000000000000       0x50 bn_sprite_text_generator.o
 .rodata._ZN2bn14utf8_characterC2ERKc.str1.4
                0x0000000000000000       0x50 bn_sprite_text_generator.o
 .text._ZN2bn14utf8_characterC2ERKc
                0x0000000000000000      0x144 bn_sprite_text_generator.o
 .text._ZN3_bn6assert9show_argsIA28_ciEEvPKcS4_S4_iRKT_RKT0_
                0x0000000000000000       0x58 bn_sprite_text_generator.o
 .rodata._ZN2bn12_GLOBAL__N_115_graphics_indexEcRKNS_23utf8_characters_map_refEPKcRi.part.0.str1.4
                0x0000000000000000       0x44 bn_sprite_text_generator.o
 .text._ZN2bn12_GLOBAL__N_115_graphics_indexEcRKNS_23utf8_characters_map_refEPKcRi.part.0
                0x0000000000000000       0x8c bn_sprite_text_generator.o
 .text._ZN3_bn6assert9show_argsIA25_cEEvPKcS4_S4_iRKT_
                0x0000000000000000       0x50 bn_sprite_text_generator.o
 .rodata._ZN2bn21sprite_text_generator16set_palette_itemERKNS_19sprite_palette_itemE.str1.4
                0x0000000000000000       0x75 bn_sprite_text_generator.o
 .text._ZN2bn21sprite_text_generator16set_palette_itemERKNS_19sprite_palette_itemE
                0x0000000000000000       0x3c bn_sprite_text_generator.o
 .rodata._ZN2bn21sprite_text_generatorC2ERKNS_11sprite_fontERKNS_19sprite_palette_itemE.str1.4
                0x0000000000000000       0x16 bn_sprite_text_generator.o
 .text._ZN2bn21sprite_text_generatorC2ERKNS_11sprite_fontERKNS_19sprite_palette_itemE
                0x0000000000000000       0x58 bn_sprite_text_generator.o
 .text._ZN3_bn6assert9show_argsIA22_ciEEvPKcS4_S4_iRKT_RKT0_
                0x0000000000000000       0x58 bn_sprite_text_generator.o
 .rodata._ZN2bn21sprite_text_generator15set_bg_priorityEi.str1.4
                0x0000000000000000       0x66 bn_sprite_text_generator.o
 .text._ZN2bn21sprite_text_generator15set_bg_priorityEi
                0x0000000000000000       0x3c bn_sprite_text_generator.o
 .text._ZN3_bn6assert9show_argsIA18_ciEEvPKcS4_S4_iRKT_RKT0_
                0x0000000000000000       0x58 bn_sprite_text_generator.o
 .rodata._ZN2bn21sprite_text_generator11set_z_orderEi.str1.4
                0x0000000000000000       0x66 bn_sprite_text_generator.o
 .text._ZN2bn21sprite_text_generator11set_z_orderEi
                0x0000000000000000       0x4c bn_sprite_text_generator.o
 .text._ZN3_bn6assert9show_argsIJA20_ccA9_cN2bn11string_viewEA2_cEEEvPKcS8_S8_iDpRKT_
                0x0000000000000000       0x70 bn_sprite_text_generator.o
 .rodata._ZNK2bn21sprite_text_generator5widthERKNS_11string_viewE.str1.4
                0x0000000000000000       0x2c bn_sprite_text_generator.o
 .text._ZNK2bn21sprite_text_generator5widthERKNS_11string_viewE
                0x0000000000000000      0x244 bn_sprite_text_generator.o
 .text._ZN3_bn6assert9show_argsIA20_ciEEvPKcS4_S4_iRKT_RKT0_
                0x0000000000000000       0x58 bn_sprite_text_generator.o
 .text._ZN3_bn6assert9show_argsIJA39_cPKN2bn4tileEA4_ciEEEvPKcS9_S9_iDpRKT_
                0x0000000000000000       0x6c bn_sprite_text_generator.o
 .text._ZN3_bn6assert9show_argsIA55_cEEvPKcS4_S4_iRKT_
                0x0000000000000000       0x50 bn_sprite_text_generator.o
 .text._ZN3_bn6assert9show_argsIA15_cEEvPKcS4_S4_iRKT_
                0x0000000000000000       0x50 bn_sprite_text_generator.o
 .rodata._ZN2bn12_GLOBAL__N_120_build_sprite_assertILNS_11sprite_sizeE1EEEPNS_4tileERKNS_21sprite_text_generatorERKNS_18sprite_palette_ptrERKNS_11fixed_pointERNS_7ivectorINS_10sprite_ptrEEE.str1.4
                0x0000000000000000       0xd6 bn_sprite_text_generator.o
 .text._ZN2bn12_GLOBAL__N_120_build_sprite_assertILNS_11sprite_sizeE1EEEPNS_4tileERKNS_21sprite_text_generatorERKNS_18sprite_palette_ptrERKNS_11fixed_pointERNS_7ivectorINS_10sprite_ptrEEE
                0x0000000000000000      0x1bc bn_sprite_text_generator.o
 .text._ZN2bn12_GLOBAL__N_120_build_sprite_assertILNS_11sprite_sizeE2EEEPNS_4tileERKNS_21sprite_text_generatorERKNS_18sprite_palette_ptrERKNS_11fixed_pointERNS_7ivectorINS_10sprite_ptrEEE
                0x0000000000000000      0x1bc bn_sprite_text_generator.o
 .text._ZN2bn12_GLOBAL__N_122_build_sprite_optionalILNS_11sprite_sizeE1EEEPNS_4tileERKNS_21sprite_text_generatorERKNS_18sprite_palette_ptrERKNS_11fixed_pointERNS_7ivectorINS_10sprite_ptrEEE
                0x0000000000000000      0x1c0 bn_sprite_text_generator.o
 .text._ZN2bn12_GLOBAL__N_122_build_sprite_optionalILNS_11sprite_sizeE2EEEPNS_4tileERKNS_21sprite_text_generatorERKNS_18sprite_palette_ptrERKNS_11fixed_pointERNS_7ivectorINS_10sprite_ptrEEE
                0x0000000000000000      0x1c0 bn_sprite_text_generator.o
 .rodata._ZN2bn12_GLOBAL__N_19_generateILb0EEEbRKNS_21sprite_text_generatorERKNS_11fixed_pointERKNS_11string_viewERKNS_23utf8_characters_map_refEiibRNS_7ivectorINS_10sprite_ptrEEE.isra.0.str1.4
                0x0000000000000000      0x1a3 bn_sprite_text_generator.o
 .text._ZN2bn12_GLOBAL__N_19_generateILb0EEEbRKNS_21sprite_text_generatorERKNS_11fixed_pointERKNS_11string_viewERKNS_23utf8_characters_map_refEiibRNS_7ivectorINS_10sprite_ptrEEE.isra.0
                0x0000000000000000     0x1144 bn_sprite_text_generator.o
 .text._ZNK2bn21sprite_text_generator8generateERKNS_11fixed_pointERKNS_11string_viewERNS_7ivectorINS_10sprite_ptrEEE
                0x0000000000000000       0x34 bn_sprite_text_generator.o
 .text._ZNK2bn21sprite_text_generator8generateENS_7fixed_tILi12EEES2_RKNS_11string_viewERNS_7ivectorINS_10sprite_ptrEEE
                0x0000000000000000       0x3c bn_sprite_text_generator.o
 .rodata._ZN2bn12_GLOBAL__N_19_generateILb1EEEbRKNS_21sprite_text_generatorERKNS_11fixed_pointERKNS_11string_viewERKNS_23utf8_characters_map_refEiibRNS_7ivectorINS_10sprite_ptrEEE.str1.4
                0x0000000000000000       0x35 bn_sprite_text_generator.o
 .text._ZN2bn12_GLOBAL__N_19_generateILb1EEEbRKNS_21sprite_text_generatorERKNS_11fixed_pointERKNS_11string_viewERKNS_23utf8_characters_map_refEiibRNS_7ivectorINS_10sprite_ptrEEE
                0x0000000000000000     0x132c bn_sprite_text_generator.o
 .text._ZNK2bn21sprite_text_generator17generate_optionalENS_7fixed_tILi12EEES2_RKNS_11string_viewERNS_7ivectorINS_10sprite_ptrEEE
                0x0000000000000000       0x3c bn_sprite_text_generator.o
 .text._ZNK2bn21sprite_text_generator17generate_optionalERKNS_11fixed_pointERKNS_11string_viewERNS_7ivectorINS_10sprite_ptrEEE
                0x0000000000000000       0x34 bn_sprite_text_generator.o
 .rodata        0x0000000000000000        0x6 bn_sprite_text_generator.o
 .group         0x0000000000000000        0xc bn_sprite_tiles_manager.o
 .group         0x0000000000000000        0xc bn_sprite_tiles_manager.o
 .group         0x0000000000000000        0xc bn_sprite_tiles_manager.o
 .group         0x0000000000000000        0xc bn_sprite_tiles_manager.o
 .group         0x0000000000000000        0xc bn_sprite_tiles_manager.o
 .group         0x0000000000000000        0xc bn_sprite_tiles_manager.o
 .group         0x0000000000000000        0xc bn_sprite_tiles_manager.o
 .group         0x0000000000000000        0xc bn_sprite_tiles_manager.o
 .group         0x0000000000000000        0xc bn_sprite_tiles_manager.o
 .group         0x0000000000000000        0xc bn_sprite_tiles_manager.o
 .group         0x0000000000000000        0xc bn_sprite_tiles_manager.o
 .group         0x0000000000000000        0xc bn_sprite_tiles_manager.o
 .group         0x0000000000000000        0xc bn_sprite_tiles_manager.o
 .group         0x0000000000000000        0xc bn_sprite_tiles_manager.o
 .group         0x0000000000000000        0xc bn_sprite_tiles_manager.o
 .group         0x0000000000000000        0xc bn_sprite_tiles_manager.o
 .group         0x0000000000000000        0xc bn_sprite_tiles_manager.o
 .group         0x0000000000000000        0xc bn_sprite_tiles_manager.o
 .group         0x0000000000000000        0xc bn_sprite_tiles_manager.o
 .group         0x0000000000000000        0xc bn_sprite_tiles_manager.o
 .group         0x0000000000000000        0xc bn_sprite_tiles_manager.o
 .group         0x0000000000000000        0xc bn_sprite_tiles_manager.o
 .group         0x0000000000000000        0xc bn_sprite_tiles_manager.o
 .group         0x0000000000000000        0xc bn_sprite_tiles_manager.o
 .group         0x0000000000000000        0xc bn_sprite_tiles_manager.o
 .text          0x0000000000000000        0x0 bn_sprite_tiles_manager.o
 .data          0x0000000000000000        0x0 bn_sprite_tiles_manager.o
 .bss           0x0000000000000000        0x0 bn_sprite_tiles_manager.o
 .text._ZN2bn12sprite_tiles16used_tiles_countEv
                0x0000000000000000       0x18 bn_sprite_tiles_manager.o
 .text._ZN2bn12sprite_tiles21available_tiles_countEv
                0x0000000000000000       0x10 bn_sprite_tiles_manager.o
 .text._ZN2bn12sprite_tiles16used_items_countEv
                0x0000000000000000       0x10 bn_sprite_tiles_manager.o
 .text._ZN2bn12sprite_tiles21available_items_countEv
                0x0000000000000000       0x10 bn_sprite_tiles_manager.o
 .text._ZN2bn16sprite_tiles_ptrC2ERKS0_
                0x0000000000000000       0x18 bn_sprite_tiles_manager.o
 .text._ZNK2bn16sprite_tiles_ptr11compressionEv
                0x0000000000000000       0x18 bn_sprite_tiles_manager.o
 .text._ZN2bn20sprite_tiles_manager16used_tiles_countEv
                0x0000000000000000       0x18 bn_sprite_tiles_manager.o
 .text._ZN2bn20sprite_tiles_manager21available_tiles_countEv
                0x0000000000000000       0x10 bn_sprite_tiles_manager.o
 .text._ZN2bn20sprite_tiles_manager16used_items_countEv
                0x0000000000000000       0x10 bn_sprite_tiles_manager.o
 .text._ZN2bn20sprite_tiles_manager21available_items_countEv
                0x0000000000000000       0x10 bn_sprite_tiles_manager.o
 .text._ZN2bn12sprite_tiles10log_statusEv
                0x0000000000000000        0xc bn_sprite_tiles_manager.o
 .text._ZN2bn20sprite_tiles_manager15increase_usagesEi
                0x0000000000000000       0x14 bn_sprite_tiles_manager.o
 .text._ZN2bn20sprite_tiles_manager10start_tileEi
                0x0000000000000000       0x14 bn_sprite_tiles_manager.o
 .text._ZN2bn20sprite_tiles_manager11tiles_countEi
                0x0000000000000000       0x14 bn_sprite_tiles_manager.o
 .text._ZN2bn20sprite_tiles_manager11compressionEi
                0x0000000000000000       0x14 bn_sprite_tiles_manager.o
 .text._ZN3_bn6assert9show_argsIA27_ciEEvPKcS4_S4_iRKT_RKT0_
                0x0000000000000000       0x58 bn_sprite_tiles_manager.o
 .text._ZN3_bn6assert9show_argsIA25_ciEEvPKcS4_S4_iRKT_RKT0_
                0x0000000000000000       0x58 bn_sprite_tiles_manager.o
 .text._ZN3_bn6assert9show_argsIA54_cEEvPKcS4_S4_iRKT_
                0x0000000000000000       0x50 bn_sprite_tiles_manager.o
 .text._ZN3_bn6assert9show_argsIJA25_ciA4_ctEEEvPKcS5_S5_iDpRKT_
                0x0000000000000000       0x6c bn_sprite_tiles_manager.o
 .text._ZN3_bn6assert9show_argsIA27_chEEvPKcS4_S4_iRKT_RKT0_
                0x0000000000000000       0x58 bn_sprite_tiles_manager.o
 .text._ZN3_bn6assert9show_argsIA19_cEEvPKcS4_S4_iRKT_
                0x0000000000000000       0x50 bn_sprite_tiles_manager.o
 .text._ZN3_bn6assert9show_argsIA22_ciEEvPKcS4_S4_iRKT_RKT0_
                0x0000000000000000       0x58 bn_sprite_tiles_manager.o
 .text._ZN3_bn6assert9show_argsIA37_cEEvPKcS4_S4_iRKT_
                0x0000000000000000       0x50 bn_sprite_tiles_manager.o
 .text._ZN3_bn6assert9show_argsIJA44_ciA34_cN2bn11string_viewEEEEvPKcS7_S7_iDpRKT_
                0x0000000000000000       0x68 bn_sprite_tiles_manager.o
 .text._ZN3_bn6assert9show_argsIA17_cEEvPKcS4_S4_iRKT_
                0x0000000000000000       0x50 bn_sprite_tiles_manager.o
 .text._ZN3_bn6assert9show_argsIA15_cEEvPKcS4_S4_iRKT_
                0x0000000000000000       0x50 bn_sprite_tiles_manager.o
 .text._ZN2bn20sprite_tiles_manager16reload_tiles_refEi
                0x0000000000000000       0x48 bn_sprite_tiles_manager.o
 .text._ZN2bn16sprite_tiles_ptr16reload_tiles_refEv
                0x0000000000000000       0x4c bn_sprite_tiles_manager.o
 .text._ZN3_bn6assert9show_argsIA16_cEEvPKcS4_S4_iRKT_
                0x0000000000000000       0x50 bn_sprite_tiles_manager.o
 .text._ZN2bn16sprite_tiles_ptraSERKS0_
                0x0000000000000000       0x3c bn_sprite_tiles_manager.o
 .text._ZN3_bn6assert9show_argsIA15_ciEEvPKcS4_S4_iRKT_RKT0_
                0x0000000000000000       0x58 bn_sprite_tiles_manager.o
 .text._ZN3_bn6assert9show_argsIA26_cEEvPKcS4_S4_iRKT_
                0x0000000000000000       0x50 bn_sprite_tiles_manager.o
 .text._ZN2bn20sprite_tiles_manager12_GLOBAL__N_114_allocate_implEi
                0x0000000000000000       0xf8 bn_sprite_tiles_manager.o
 .rodata._ZN2bn20sprite_tiles_manager19create_new_optionalERKNS_4spanIKNS_4tileEEENS_16compression_typeE.str1.4
                0x0000000000000000       0x14 bn_sprite_tiles_manager.o
 .text._ZN2bn20sprite_tiles_manager19create_new_optionalERKNS_4spanIKNS_4tileEEENS_16compression_typeE
                0x0000000000000000      0x150 bn_sprite_tiles_manager.o
 .text._ZN2bn13ostringstream11append_argsIA4_cJiEEEvRKT_DpRKT0_
                0x0000000000000000       0x18 bn_sprite_tiles_manager.o
 .text._ZN3_bn6assert9show_argsIJA39_cPKN2bn4tileEA4_ciEEEvPKcS9_S9_iDpRKT_
                0x0000000000000000       0x64 bn_sprite_tiles_manager.o
 .text._ZNK2bn17sprite_tiles_item16create_new_tilesEv
                0x0000000000000000       0x94 bn_sprite_tiles_manager.o
 .text._ZN2bn16sprite_tiles_ptr10create_newERKNS_17sprite_tiles_itemE
                0x0000000000000000       0x94 bn_sprite_tiles_manager.o
 .text._ZNK2bn17sprite_tiles_item25create_new_tiles_optionalEv
                0x0000000000000000       0xa8 bn_sprite_tiles_manager.o
 .text._ZN2bn16sprite_tiles_ptr19create_new_optionalERKNS_17sprite_tiles_itemE
                0x0000000000000000       0xa8 bn_sprite_tiles_manager.o
 .text._ZN2bn20sprite_tiles_manager9tiles_refEi
                0x0000000000000000       0x38 bn_sprite_tiles_manager.o
 .text._ZNK2bn16sprite_tiles_ptr9tiles_refEv
                0x0000000000000000       0x3c bn_sprite_tiles_manager.o
 .text._ZN2bn16sprite_tiles_ptr10create_newERKNS_17sprite_tiles_itemEi
                0x0000000000000000       0xe4 bn_sprite_tiles_manager.o
 .text._ZNK2bn17sprite_tiles_item25create_new_tiles_optionalEi
                0x0000000000000000       0xf8 bn_sprite_tiles_manager.o
 .text._ZN2bn16sprite_tiles_ptr19create_new_optionalERKNS_17sprite_tiles_itemEi
                0x0000000000000000       0xf8 bn_sprite_tiles_manager.o
 .text._ZN3_bn6assert9show_argsIJA46_ciA4_ciEEEvPKcS5_S5_iDpRKT_
                0x0000000000000000       0x64 bn_sprite_tiles_manager.o
 .text._ZN2bn20sprite_tiles_manager13set_tiles_refEiRKNS_4spanIKNS_4tileEEENS_16compression_typeE
                0x0000000000000000      0x284 bn_sprite_tiles_manager.o
 .text._ZN2bn16sprite_tiles_ptr13set_tiles_refERKNS_17sprite_tiles_itemE
                0x0000000000000000       0x90 bn_sprite_tiles_manager.o
 .text._ZN2bn16sprite_tiles_ptr13set_tiles_refERKNS_17sprite_tiles_itemEi
                0x0000000000000000       0xe4 bn_sprite_tiles_manager.o
 .text._ZN3_bn6assert9show_argsIJA58_ciA4_ciEEEvPKcS5_S5_iDpRKT_
                0x0000000000000000       0x64 bn_sprite_tiles_manager.o
 .rodata._ZNK2bn17sprite_tiles_item10decompressENS_4spanINS_4tileEEE.str1.4
                0x0000000000000000       0xb3 bn_sprite_tiles_manager.o
 .text._ZNK2bn17sprite_tiles_item10decompressENS_4spanINS_4tileEEE
                0x0000000000000000      0x160 bn_sprite_tiles_manager.o
 .text._ZN2bn20sprite_tiles_manager4findERKNS_4spanIKNS_4tileEEENS_16compression_typeE
                0x0000000000000000       0x14 bn_sprite_tiles_manager.o
 .text._ZN2bn20sprite_tiles_manager15create_optionalERKNS_4spanIKNS_4tileEEENS_16compression_typeE
                0x0000000000000000       0xec bn_sprite_tiles_manager.o
 .text._ZN2bn16sprite_tiles_ptr15create_optionalERKNS_17sprite_tiles_itemE
                0x0000000000000000       0xa8 bn_sprite_tiles_manager.o
 .text._ZN2bn16sprite_tiles_ptr15create_optionalERKNS_17sprite_tiles_itemEi
                0x0000000000000000       0xf8 bn_sprite_tiles_manager.o
 .text._ZNK2bn17sprite_tiles_item21create_tiles_optionalEi
                0x0000000000000000       0xf8 bn_sprite_tiles_manager.o
 .text._ZNK2bn17sprite_tiles_item21create_tiles_optionalEv
                0x0000000000000000       0xa8 bn_sprite_tiles_manager.o
 .text._ZN2bn16sprite_tiles_ptr6createERKNS_17sprite_tiles_itemE
                0x0000000000000000       0x94 bn_sprite_tiles_manager.o
 .text._ZN2bn16sprite_tiles_ptr6createERKNS_17sprite_tiles_itemEi
                0x0000000000000000       0xe4 bn_sprite_tiles_manager.o
 .text._ZN2bn16sprite_tiles_ptr4findERKNS_17sprite_tiles_itemE
                0x0000000000000000       0xa0 bn_sprite_tiles_manager.o
 .text._ZN2bn16sprite_tiles_ptr4findERKNS_17sprite_tiles_itemEi
                0x0000000000000000       0xf0 bn_sprite_tiles_manager.o
 .text._ZNK2bn17sprite_tiles_item10find_tilesEv
                0x0000000000000000       0xa0 bn_sprite_tiles_manager.o
 .text._ZN3_bn6assert9show_argsIJA22_ciA4_ciEEEvPKcS5_S5_iDpRKT_
                0x0000000000000000       0x64 bn_sprite_tiles_manager.o
 .rodata._ZN2bn20sprite_tiles_manager17allocate_optionalEiNS_8bpp_modeE.str1.4
                0x0000000000000000       0x62 bn_sprite_tiles_manager.o
 .text._ZN2bn20sprite_tiles_manager17allocate_optionalEiNS_8bpp_modeE
                0x0000000000000000       0x8c bn_sprite_tiles_manager.o
 .text._ZN2bn16sprite_tiles_ptr17allocate_optionalEiNS_8bpp_modeE
                0x0000000000000000       0x2c bn_sprite_tiles_manager.o
 .rodata._ZN2bn20sprite_tiles_manager8allocateEiNS_8bpp_modeE.str1.4
                0x0000000000000000       0x38 bn_sprite_tiles_manager.o
 .text._ZN2bn20sprite_tiles_manager8allocateEiNS_8bpp_modeE
                0x0000000000000000       0xc4 bn_sprite_tiles_manager.o
 .text._ZN2bn16sprite_tiles_ptr8allocateEiNS_8bpp_modeE
                0x0000000000000000       0x18 bn_sprite_tiles_manager.o
 .text._ZN3_bn6assert9show_argsIJA39_cPN2bn4tileEA4_ciEEEvPKcS8_S8_iDpRKT_
                0x0000000000000000       0x64 bn_sprite_tiles_manager.o
 .text._ZN2bn20sprite_tiles_manager4vramEi
                0x0000000000000000       0x4c bn_sprite_tiles_manager.o
 .text._ZN2bn16sprite_tiles_ptr4vramEv
                0x0000000000000000       0x14 bn_sprite_tiles_manager.o
 .group         0x0000000000000000        0xc bn_sram.o
 .group         0x0000000000000000        0xc bn_sram.o
 .group         0x0000000000000000        0xc bn_sram.o
 .group         0x0000000000000000        0xc bn_sram.o
 .text          0x0000000000000000        0x0 bn_sram.o
 .data          0x0000000000000000        0x0 bn_sram.o
 .bss           0x0000000000000000        0x0 bn_sram.o
 .text._ZN3_bn4sram11unsafe_readEPvii
                0x0000000000000000       0x18 bn_sram.o
 .text._ZN3_bn4sram12unsafe_writeEPKvii
                0x0000000000000000       0x18 bn_sram.o
 .text._ZN3_bn6assert9show_argsIA16_ciEEvPKcS4_S4_iRKT_RKT0_
                0x0000000000000000       0x58 bn_sram.o
 .text._ZN3_bn6assert9show_argsIA20_ciEEvPKcS4_S4_iRKT_RKT0_
                0x0000000000000000       0x58 bn_sram.o
 .rodata._ZN2bn4sram5clearEi.str1.4
                0x0000000000000000       0x54 bn_sram.o
 .text._ZN2bn4sram5clearEi
                0x0000000000000000       0x64 bn_sram.o
 .rodata._ZN2bn4sram9set_bytesEhi.str1.4
                0x0000000000000000        0xa bn_sram.o
 .text._ZN2bn4sram9set_bytesEhi
                0x0000000000000000       0x64 bn_sram.o
 .text._ZN3_bn6assert9show_argsIA17_ciEEvPKcS4_S4_iRKT_RKT0_
                0x0000000000000000       0x58 bn_sram.o
 .text._ZN3_bn6assert9show_argsIJA32_ciA4_ciEEEvPKcS5_S5_iDpRKT_
                0x0000000000000000       0x6c bn_sram.o
 .rodata._ZN2bn4sram5clearEii.str1.4
                0x0000000000000000       0x60 bn_sram.o
 .text._ZN2bn4sram5clearEii
                0x0000000000000000       0x9c bn_sram.o
 .text._ZN2bn4sram9set_bytesEhii
                0x0000000000000000       0x9c bn_sram.o
 .debug_info    0x0000000000000000     0x2c24 bn_sram.o
 .debug_abbrev  0x0000000000000000      0x6b0 bn_sram.o
 .debug_loc     0x0000000000000000     0x106e bn_sram.o
 .debug_aranges
                0x0000000000000000       0x68 bn_sram.o
 .debug_ranges  0x0000000000000000      0x158 bn_sram.o
 .debug_line    0x0000000000000000      0xbcd bn_sram.o
 .debug_str     0x0000000000000000     0x19e4 bn_sram.o
 .comment       0x0000000000000000       0x24 bn_sram.o
 .debug_frame   0x0000000000000000      0x144 bn_sram.o
 .group         0x0000000000000000        0xc bn_sstream.o
 .group         0x0000000000000000        0xc bn_sstream.o
 .group         0x0000000000000000        0xc bn_sstream.o
 .group         0x0000000000000000        0xc bn_sstream.o
 .group         0x0000000000000000        0xc bn_sstream.o
 .text          0x0000000000000000        0x0 bn_sstream.o
 .data          0x0000000000000000        0x0 bn_sstream.o
 .bss           0x0000000000000000        0x0 bn_sstream.o
 .text._ZN2bn13ostringstream9set_rdbufERNS_12istring_baseE
                0x0000000000000000        0x4 bn_sstream.o
 .text._ZNK2bn13ostringstream4viewEv
                0x0000000000000000       0x10 bn_sstream.o
 .text._ZNK2bn13ostringstream4sizeEv
                0x0000000000000000        0x8 bn_sstream.o
 .text._ZNK2bn13ostringstream6lengthEv
                0x0000000000000000        0x8 bn_sstream.o
 .text._ZNK2bn13ostringstream8max_sizeEv
                0x0000000000000000        0x8 bn_sstream.o
 .text._ZNK2bn13ostringstream9availableEv
                0x0000000000000000        0xc bn_sstream.o
 .text._ZNK2bn13ostringstream5emptyEv
                0x0000000000000000        0xc bn_sstream.o
 .text._ZNK2bn13ostringstream4fullEv
                0x0000000000000000       0x10 bn_sstream.o
 .text._ZN2bn13ostringstream4swapERS0_
                0x0000000000000000       0x14 bn_sstream.o
 .text._ZN3_bn6assert9show_argsIJA19_ciA4_ciEEEvPKcS5_S5_iDpRKT_
                0x0000000000000000      0x168 bn_sstream.o
 .text._ZN2bn13ostringstream6appendERKNS_12istring_baseE
                0x0000000000000000       0x68 bn_sstream.o
 .text._ZN2bn7istring6appendEPKc.isra.0
                0x0000000000000000       0x88 bn_sstream.o
 .text._ZN3_bn6assert9show_argsIA26_ciEEvPKcS4_S4_iRKT_RKT0_
                0x0000000000000000       0x54 bn_sstream.o
 .text._ZN2bn13ostringstream6appendEPKci
                0x0000000000000000       0x90 bn_sstream.o
 .text._ZN2bn13ostringstream6appendEm
                0x0000000000000000       0x9c bn_sstream.o
 .text._ZN2bn13ostringstream6appendEl
                0x0000000000000000       0x9c bn_sstream.o
 .text._ZN2bn13ostringstream6appendEx
                0x0000000000000000       0xa0 bn_sstream.o
 .text._ZN2bn13ostringstream6appendEy
                0x0000000000000000       0xa0 bn_sstream.o
 .text._ZN3_bn6assert9show_argsIA15_cEEvPKcS4_S4_iRKT_
                0x0000000000000000       0x44 bn_sstream.o
 .text._ZN2bn13ostringstream16_append_fractionEji
                0x0000000000000000       0xfc bn_sstream.o
 .text._ZN3_bn6assert9show_argsIA11_cEEvPKcS4_S4_iRKT_
                0x0000000000000000       0x44 bn_sstream.o
 .rodata._ZN2bn13ostringstream5rdbufEPNS_12istring_baseE.str1.4
                0x0000000000000000       0x27 bn_sstream.o
 .text._ZN2bn13ostringstream5rdbufEPNS_12istring_baseE
                0x0000000000000000       0x34 bn_sstream.o
 .text._ZN3_bn6assert9show_argsIA20_ciEEvPKcS4_S4_iRKT_RKT0_
                0x0000000000000000       0x54 bn_sstream.o
 .rodata._ZN2bn13ostringstream9precisionEi.str1.4
                0x0000000000000000       0x34 bn_sstream.o
 .text._ZN2bn13ostringstream9precisionEi
                0x0000000000000000       0x38 bn_sstream.o
 .rodata._ZN2bn13ostringstream13set_precisionEi.str1.4
                0x0000000000000000       0x1f bn_sstream.o
 .text._ZN2bn13ostringstream13set_precisionEi
                0x0000000000000000       0x38 bn_sstream.o
 .text          0x0000000000000000        0x0 bn_timer.o
 .data          0x0000000000000000        0x0 bn_timer.o
 .bss           0x0000000000000000        0x0 bn_timer.o
 .group         0x0000000000000000        0xc bn_hw_audio.bn_noflto.o
 .group         0x0000000000000000        0xc bn_hw_audio.bn_noflto.o
 .group         0x0000000000000000        0xc bn_hw_audio.bn_noflto.o
 .text          0x0000000000000000        0x0 bn_hw_audio.bn_noflto.o
 .data          0x0000000000000000        0x0 bn_hw_audio.bn_noflto.o
 .bss           0x0000000000000000        0x0 bn_hw_audio.bn_noflto.o
 .text._ZN2bn2hw5audio6enableEv
                0x0000000000000000       0x28 bn_hw_audio.bn_noflto.o
 .text._ZN2bn2hw5audio16update_on_vblankEv
                0x0000000000000000        0xc bn_hw_audio.bn_noflto.o
 .text._ZN2bn2hw5audio20set_update_on_vblankEb
                0x0000000000000000        0xc bn_hw_audio.bn_noflto.o
 .text._ZN3_bn6assert9show_argsIA14_cEEvPKcS4_S4_iRKT_
                0x0000000000000000       0x50 bn_hw_audio.bn_noflto.o
 .text._ZN3_bn6assert9show_argsIA13_cEEvPKcS4_S4_iRKT_
                0x0000000000000000       0x50 bn_hw_audio.bn_noflto.o
 .text._ZN3_bn6assert9show_argsIA33_cEEvPKcS4_S4_iRKT_
                0x0000000000000000       0x50 bn_hw_audio.bn_noflto.o
 .text          0x0000000000000000        0x0 bn_hw_bg_blocks.bn_iwram.o
 .data          0x0000000000000000        0x0 bn_hw_bg_blocks.bn_iwram.o
 .bss           0x0000000000000000        0x0 bn_hw_bg_blocks.bn_iwram.o
 .group         0x0000000000000000        0xc bn_hw_common.bn_noflto.o
 .group         0x0000000000000000        0xc bn_hw_common.bn_noflto.o
 .text          0x0000000000000000        0x0 bn_hw_common.bn_noflto.o
 .data          0x0000000000000000        0x0 bn_hw_common.bn_noflto.o
 .bss           0x0000000000000000        0x0 bn_hw_common.bn_noflto.o
 .text.__aeabi_atexit
                0x0000000000000000        0x4 bn_hw_common.bn_noflto.o
 .text._ZN3_bn6assert9show_argsIA27_cEEvPKcS4_S4_iRKT_
                0x0000000000000000       0x50 bn_hw_common.bn_noflto.o
 .text.__cxa_pure_virtual
                0x0000000000000000       0x24 bn_hw_common.bn_noflto.o
 .rodata.__aeabi_ldiv0.str1.4
                0x0000000000000000       0x38 bn_hw_common.bn_noflto.o
 .text.__aeabi_ldiv0
                0x0000000000000000       0x24 bn_hw_common.bn_noflto.o
 .text          0x0000000000000000        0x0 bn_hw_cstdlib.o
 .data          0x0000000000000000        0x0 bn_hw_cstdlib.o
 .bss           0x0000000000000000        0x0 bn_hw_cstdlib.o
 .text.malloc   0x0000000000000000        0xc bn_hw_cstdlib.o
 .text.calloc   0x0000000000000000        0xc bn_hw_cstdlib.o
 .text.realloc  0x0000000000000000        0xc bn_hw_cstdlib.o
 .text.free     0x0000000000000000        0xc bn_hw_cstdlib.o
 .debug_info    0x0000000000000000      0xb27 bn_hw_cstdlib.o
 .debug_abbrev  0x0000000000000000      0x274 bn_hw_cstdlib.o
 .debug_loc     0x0000000000000000       0xde bn_hw_cstdlib.o
 .debug_aranges
                0x0000000000000000       0x38 bn_hw_cstdlib.o
 .debug_ranges  0x0000000000000000       0x28 bn_hw_cstdlib.o
 .debug_line    0x0000000000000000      0x317 bn_hw_cstdlib.o
 .debug_str     0x0000000000000000      0x633 bn_hw_cstdlib.o
 .comment       0x0000000000000000       0x24 bn_hw_cstdlib.o
 .debug_frame   0x0000000000000000       0x70 bn_hw_cstdlib.o
 .text          0x0000000000000000        0x0 bn_hw_game_pak.bn_ewram.o
 .data          0x0000000000000000        0x0 bn_hw_game_pak.bn_ewram.o
 .bss           0x0000000000000000        0x0 bn_hw_game_pak.bn_ewram.o
 .text          0x0000000000000000        0x0 bn_hw_game_pak.o
 .data          0x0000000000000000        0x0 bn_hw_game_pak.o
 .bss           0x0000000000000000        0x0 bn_hw_game_pak.o
 .text          0x0000000000000000        0x0 bn_hw_irq.o
 .data          0x0000000000000000        0x0 bn_hw_irq.o
 .bss           0x0000000000000000        0x0 bn_hw_irq.o
 .group         0x0000000000000000        0xc bn_hw_link.o
 .group         0x0000000000000000        0xc bn_hw_link.o
 .text          0x0000000000000000        0x0 bn_hw_link.o
 .data          0x0000000000000000        0x0 bn_hw_link.o
 .bss           0x0000000000000000        0x0 bn_hw_link.o
 .text._ZN2bn2hw4link6enableEv
                0x0000000000000000       0xa4 bn_hw_link.o
 .text._ZN2bn2hw4link10deactivateEv
                0x0000000000000000       0x24 bn_hw_link.o
 .text._ZN3_bn6assert9show_argsIA15_cEEvPKcS4_S4_iRKT_
                0x0000000000000000       0x50 bn_hw_link.o
 .text._ZN2bn2hw4link7receiveER12LinkResponse
                0x0000000000000000       0x88 bn_hw_link.o
 .text._ZN3_bn6assert9show_argsIA14_cEEvPKcS4_S4_iRKT_
                0x0000000000000000       0x50 bn_hw_link.o
 .text._ZN2bn2hw4link4sendEi
                0x0000000000000000       0xa4 bn_hw_link.o
 .text          0x0000000000000000        0x0 bn_hw_log.o
 .data          0x0000000000000000        0x0 bn_hw_log.o
 .bss           0x0000000000000000        0x0 bn_hw_log.o
 .text          0x0000000000000000        0x0 bn_hw_memory.o
 .data          0x0000000000000000        0x0 bn_hw_memory.o
 .bss           0x0000000000000000        0x0 bn_hw_memory.o
 .text._ZN2bn2hw6memory16used_stack_iwramEi
                0x0000000000000000       0x10 bn_hw_memory.o
 .text._ZN2bn2hw6memory17used_static_iwramEv
                0x0000000000000000       0x10 bn_hw_memory.o
 .text._ZN2bn2hw6memory17used_static_ewramEv
                0x0000000000000000       0x10 bn_hw_memory.o
 .text          0x0000000000000000        0x0 bn_hw_palettes.o
 .data          0x0000000000000000        0x0 bn_hw_palettes.o
 .bss           0x0000000000000000        0x0 bn_hw_palettes.o
 .group         0x0000000000000000        0xc bn_hw_show.o
 .group         0x0000000000000000        0xc bn_hw_show.o
 .text          0x0000000000000000        0x0 bn_hw_show.o
 .data          0x0000000000000000        0x0 bn_hw_show.o
 .bss           0x0000000000000000        0x0 bn_hw_show.o
 .text._ZN3_bn6assert9show_argsIA26_ciEEvPKcS4_S4_iRKT_RKT0_
                0x0000000000000000       0x58 bn_hw_show.o
 .text._ZN3_bn6assert9show_argsIJA19_ciA4_ciEEEvPKcS5_S5_iDpRKT_
                0x0000000000000000       0x6c bn_hw_show.o
 .text          0x0000000000000000        0x0 bn_hw_sprite_tiles.bn_iwram.o
 .data          0x0000000000000000        0x0 bn_hw_sprite_tiles.bn_iwram.o
 .bss           0x0000000000000000        0x0 bn_hw_sprite_tiles.bn_iwram.o
 .iwram         0x0000000000000000       0xa8 bn_hw_sprite_tiles.bn_iwram.o
 .debug_info    0x0000000000000000     0x1006 bn_hw_sprite_tiles.bn_iwram.o
 .debug_abbrev  0x0000000000000000      0x433 bn_hw_sprite_tiles.bn_iwram.o
 .debug_loc     0x0000000000000000      0x20f bn_hw_sprite_tiles.bn_iwram.o
 .debug_aranges
                0x0000000000000000       0x20 bn_hw_sprite_tiles.bn_iwram.o
 .debug_ranges  0x0000000000000000       0xa0 bn_hw_sprite_tiles.bn_iwram.o
 .debug_line    0x0000000000000000      0x5e6 bn_hw_sprite_tiles.bn_iwram.o
 .debug_str     0x0000000000000000      0xc90 bn_hw_sprite_tiles.bn_iwram.o
 .comment       0x0000000000000000       0x24 bn_hw_sprite_tiles.bn_iwram.o
 .debug_frame   0x0000000000000000       0x44 bn_hw_sprite_tiles.bn_iwram.o
 .text          0x0000000000000000        0x0 bn_hw_sprite_tiles.o
 .data          0x0000000000000000        0x0 bn_hw_sprite_tiles.o
 .bss           0x0000000000000000        0x0 bn_hw_sprite_tiles.o
 .text._ZN2bn2hw12sprite_tiles10plot_tilesEiPKNS_4tileEiiPS2_
                0x0000000000000000       0x40 bn_hw_sprite_tiles.o
 .debug_info    0x0000000000000000      0xfa2 bn_hw_sprite_tiles.o
 .debug_abbrev  0x0000000000000000      0x403 bn_hw_sprite_tiles.o
 .debug_loc     0x0000000000000000      0x30d bn_hw_sprite_tiles.o
 .debug_aranges
                0x0000000000000000       0x20 bn_hw_sprite_tiles.o
 .debug_ranges  0x0000000000000000       0x28 bn_hw_sprite_tiles.o
 .debug_line    0x0000000000000000      0x57d bn_hw_sprite_tiles.o
 .debug_str     0x0000000000000000      0xd35 bn_hw_sprite_tiles.o
 .comment       0x0000000000000000       0x24 bn_hw_sprite_tiles.o
 .debug_frame   0x0000000000000000       0x2c bn_hw_sprite_tiles.o
 .text          0x0000000000000000        0x0 bn_hw_sram.bn_ewram.o
 .data          0x0000000000000000        0x0 bn_hw_sram.bn_ewram.o
 .bss           0x0000000000000000        0x0 bn_hw_sram.bn_ewram.o
 .ewram         0x0000000000000000       0x10 bn_hw_sram.bn_ewram.o
 .debug_info    0x0000000000000000      0x521 bn_hw_sram.bn_ewram.o
 .debug_abbrev  0x0000000000000000      0x178 bn_hw_sram.bn_ewram.o
 .debug_loc     0x0000000000000000       0xc0 bn_hw_sram.bn_ewram.o
 .debug_aranges
                0x0000000000000000       0x20 bn_hw_sram.bn_ewram.o
 .debug_ranges  0x0000000000000000       0x10 bn_hw_sram.bn_ewram.o
 .debug_line    0x0000000000000000      0x317 bn_hw_sram.bn_ewram.o
 .debug_str     0x0000000000000000      0x513 bn_hw_sram.bn_ewram.o
 .comment       0x0000000000000000       0x24 bn_hw_sram.bn_ewram.o
 .debug_frame   0x0000000000000000       0x20 bn_hw_sram.bn_ewram.o
 .text          0x0000000000000000        0x0 bn_hw_sram.o
 .data          0x0000000000000000        0x0 bn_hw_sram.o
 .bss           0x0000000000000000        0x0 bn_hw_sram.o
 .text          0x0000000000000000        0x0 bn_hw_system_font.o
 .data          0x0000000000000000        0x0 bn_hw_system_font.o
 .bss           0x0000000000000000        0x0 bn_hw_system_font.o
 .text._ZN2bn11system_fontC2ERK5TFont
                0x0000000000000000       0x14 bn_hw_system_font.o
 .text          0x0000000000000000        0x0 bn_hw_text.o
 .data          0x0000000000000000        0x0 bn_hw_text.o
 .bss           0x0000000000000000        0x0 bn_hw_text.o
 .text._ZN2bn2hw4text5parseElRNS_5arrayIcLi32EEE
                0x0000000000000000        0xc bn_hw_text.o
 .text._ZN2bn2hw4text5parseExRNS_5arrayIcLi32EEE
                0x0000000000000000      0x138 bn_hw_text.o
 .text._ZN2bn2hw4text5parseEmRNS_5arrayIcLi32EEE
                0x0000000000000000        0xc bn_hw_text.o
 .text._ZN2bn2hw4text5parseEyRNS_5arrayIcLi32EEE
                0x0000000000000000       0xe4 bn_hw_text.o
 .text          0x0000000000000000        0x0 tonc_color.o
 .data          0x0000000000000000        0x0 tonc_color.o
 .bss           0x0000000000000000        0x0 tonc_color.o
 .text.clr_rotate
                0x0000000000000000       0xbc tonc_color.o
 .text.clr_blend
                0x0000000000000000       0x98 tonc_color.o
 .text.clr_fade
                0x0000000000000000       0x8c tonc_color.o
 .text.clr_rgbscale
                0x0000000000000000       0xc8 tonc_color.o
 .text.pal_gradient
                0x0000000000000000       0xf0 tonc_color.o
 .text.pal_gradient_ex
                0x0000000000000000       0x18 tonc_color.o
 .text.clr_adj_brightness
                0x0000000000000000       0x60 tonc_color.o
 .text.clr_adj_contrast
                0x0000000000000000       0x80 tonc_color.o
 .text.clr_adj_intensity
                0x0000000000000000       0x7c tonc_color.o
 .text          0x0000000000000000        0x0 tonc_sbmp16.o
 .data          0x0000000000000000        0x0 tonc_sbmp16.o
 .bss           0x0000000000000000        0x0 tonc_sbmp16.o
 .text.sbmp16_get_pixel
                0x0000000000000000       0x10 tonc_sbmp16.o
 .text.sbmp16_plot
                0x0000000000000000       0x14 tonc_sbmp16.o
 .text.sbmp16_vline
                0x0000000000000000       0x3c tonc_sbmp16.o
 .text.sbmp16_line
                0x0000000000000000       0xc4 tonc_sbmp16.o
 .text.sbmp16_hline
                0x0000000000000000       0x30 tonc_sbmp16.o
 .text.sbmp16_blit
                0x0000000000000000      0x150 tonc_sbmp16.o
 .text.sbmp16_frame
                0x0000000000000000       0x88 tonc_sbmp16.o
 .text.sbmp16_floodfill_internal
                0x0000000000000000      0x118 tonc_sbmp16.o
 .text.sbmp16_floodfill
                0x0000000000000000       0x28 tonc_sbmp16.o
 .rodata.str1.4
                0x0000000000000000        0x6 tonc_sbmp16.o
 .rodata.bmp16_tab
                0x0000000000000000       0x28 tonc_sbmp16.o
 .rodata.m5_surface
                0x0000000000000000       0x14 tonc_sbmp16.o
 .text          0x0000000000000000        0x0 bmp16_drawg_b1cs.o
 .data          0x0000000000000000        0x0 bmp16_drawg_b1cs.o
 .bss           0x0000000000000000        0x0 bmp16_drawg_b1cs.o
 .text.bmp16_drawg_b1cos
                0x0000000000000000       0xcc bmp16_drawg_b1cs.o
 .text          0x0000000000000000        0x0 tte_init_bmp.o
 .data          0x0000000000000000        0x0 tte_init_bmp.o
 .bss           0x0000000000000000        0x0 tte_init_bmp.o
 .text.bmp8_erase
                0x0000000000000000       0x24 tte_init_bmp.o
 .text          0x0000000000000000        0x0 tte_main.o
 .data          0x0000000000000000        0x0 tte_main.o
 .bss           0x0000000000000000        0x0 tte_main.o
 .text.tte_set_color_attr
                0x0000000000000000       0x10 tte_main.o
 .text.tte_set_color_attrs
                0x0000000000000000       0x18 tte_main.o
 .text.tte_set_color
                0x0000000000000000       0x1c tte_main.o
 .text.tte_set_colors
                0x0000000000000000       0x38 tte_main.o
 .text.tte_putc
                0x0000000000000000       0x54 tte_main.o
 .text.tte_write_ex
                0x0000000000000000       0x2c tte_main.o
 .text.tte_erase_rect
                0x0000000000000000       0x1c tte_main.o
 .text.tte_erase_screen
                0x0000000000000000       0x24 tte_main.o
 .text.tte_erase_line
                0x0000000000000000       0x2c tte_main.o
 .text          0x0000000000000000        0x0 interrupts_gba.o
 .data          0x0000000000000000        0x0 interrupts_gba.o
 .bss           0x0000000000000000        0x0 interrupts_gba.o
 .text          0x0000000000000000        0x0 gbt_player.o
 .data          0x0000000000000000        0x0 gbt_player.o
 .bss           0x0000000000000000        0x0 gbt_player.o
 .text.gbt_set_event_callback_handler
                0x0000000000000000        0xc gbt_player.o
 .text.gbt_enable_channels
                0x0000000000000000       0x10 gbt_player.o
 .text          0x0000000000000000       0x18 bn_hw_core.o
 .data          0x0000000000000000        0x0 bn_hw_core.o
 .bss           0x0000000000000000        0x0 bn_hw_core.o
 .debug_line    0x0000000000000000       0x81 bn_hw_core.o
 .debug_info    0x0000000000000000       0x23 bn_hw_core.o
 .debug_abbrev  0x0000000000000000       0x14 bn_hw_core.o
 .debug_aranges
                0x0000000000000000       0x20 bn_hw_core.o
 .debug_str     0x0000000000000000       0x96 bn_hw_core.o
 .text          0x0000000000000000        0x0 bn_hw_hblank_effects.o
 .data          0x0000000000000000        0x0 bn_hw_hblank_effects.o
 .bss           0x0000000000000000        0x0 bn_hw_hblank_effects.o
 .text          0x0000000000000000        0x0 clr_blend_fast.o
 .data          0x0000000000000000        0x0 clr_blend_fast.o
 .bss           0x0000000000000000        0x0 clr_blend_fast.o
 .text          0x0000000000000000        0x0 clr_fade_fast.o
 .data          0x0000000000000000        0x0 clr_fade_fast.o
 .bss           0x0000000000000000        0x0 clr_fade_fast.o
 .data          0x0000000000000000        0x0 tonc_bios.o
 .bss           0x0000000000000000        0x0 tonc_bios.o
 .data          0x0000000000000000        0x0 tonc_memset.o
 .bss           0x0000000000000000        0x0 tonc_memset.o
 .text          0x0000000000000000       0x38 tonc_nocash.o
 .data          0x0000000000000000        0x0 tonc_nocash.o
 .bss           0x0000000000000000        0x0 tonc_nocash.o
 .ewram         0x0000000000000000       0x5c tonc_nocash.o
 .debug_line    0x0000000000000000       0xb7 tonc_nocash.o
 .debug_info    0x0000000000000000       0x37 tonc_nocash.o
 .debug_abbrev  0x0000000000000000       0x1f tonc_nocash.o
 .debug_aranges
                0x0000000000000000       0x28 tonc_nocash.o
 .debug_str     0x0000000000000000       0xc4 tonc_nocash.o
 .debug_ranges  0x0000000000000000       0x20 tonc_nocash.o
 .text          0x0000000000000000        0x0 verdana9.o
 .data          0x0000000000000000        0x0 verdana9.o
 .bss           0x0000000000000000        0x0 verdana9.o
 .text          0x0000000000000000        0x0 irq_handler.o
 .data          0x0000000000000000        0x0 irq_handler.o
 .bss           0x0000000000000000        0x0 irq_handler.o
 .data          0x0000000000000000        0x0 posprintf.o
 .bss           0x0000000000000000        0x0 posprintf.o
 .text          0x0000000000000000        0x0 atan2.o
 .data          0x0000000000000000        0x0 atan2.o
 .bss           0x0000000000000000        0x0 atan2.o
 .iwram.__agbabi_atan2
                0x0000000000000000       0xd4 atan2.o
 .debug_line    0x0000000000000000       0xb7 atan2.o
 .debug_info    0x0000000000000000       0x24 atan2.o
 .debug_abbrev  0x0000000000000000       0x14 atan2.o
 .debug_aranges
                0x0000000000000000       0x20 atan2.o
 .debug_str     0x0000000000000000       0xa2 atan2.o
 .text          0x0000000000000000        0x0 lmul.o
 .data          0x0000000000000000        0x0 lmul.o
 .bss           0x0000000000000000        0x0 lmul.o
 .iwram.__aeabi_lmul
                0x0000000000000000       0x14 lmul.o
 .iwram.__aeabi_llsl
                0x0000000000000000       0x1c lmul.o
 .iwram.__aeabi_llsr
                0x0000000000000000       0x1c lmul.o
 .iwram.__aeabi_lasr
                0x0000000000000000       0x1c lmul.o
 .debug_line    0x0000000000000000       0xc5 lmul.o
 .debug_info    0x0000000000000000       0x22 lmul.o
 .debug_abbrev  0x0000000000000000       0x12 lmul.o
 .debug_aranges
                0x0000000000000000       0x38 lmul.o
 .debug_str     0x0000000000000000       0xa1 lmul.o
 .debug_ranges  0x0000000000000000       0x30 lmul.o
 .text          0x0000000000000000        0x0 memcpy.o
 .data          0x0000000000000000        0x0 memcpy.o
 .bss           0x0000000000000000        0x0 memcpy.o
 .text          0x0000000000000000        0x0 memmove.o
 .data          0x0000000000000000        0x0 memmove.o
 .bss           0x0000000000000000        0x0 memmove.o
 .text          0x0000000000000000        0x0 memset.o
 .data          0x0000000000000000        0x0 memset.o
 .bss           0x0000000000000000        0x0 memset.o
 .iwram.__aeabi_memclr
                0x0000000000000000       0x10 memset.o
 .text          0x0000000000000000        0x0 rmemcpy.o
 .data          0x0000000000000000        0x0 rmemcpy.o
 .bss           0x0000000000000000        0x0 rmemcpy.o
 .text          0x0000000000000000        0x0 clz.o
 .data          0x0000000000000000        0x0 clz.o
 .bss           0x0000000000000000        0x0 clz.o
 .iwram         0x0000000000000000      0x148 clz.o
 .debug_line    0x0000000000000000       0x99 clz.o
 .debug_info    0x0000000000000000       0x24 clz.o
 .debug_abbrev  0x0000000000000000       0x14 clz.o
 .debug_aranges
                0x0000000000000000       0x20 clz.o
 .debug_str     0x0000000000000000       0xa4 clz.o
 .text          0x0000000000000000        0x0 sdiv32.o
 .data          0x0000000000000000        0x0 sdiv32.o
 .bss           0x0000000000000000        0x0 sdiv32.o
 .text          0x0000000000000000        0x0 sqrt32.o
 .data          0x0000000000000000        0x0 sqrt32.o
 .bss           0x0000000000000000        0x0 sqrt32.o
 .iwram         0x0000000000000000       0xec sqrt32.o
 .debug_line    0x0000000000000000       0xc2 sqrt32.o
 .debug_info    0x0000000000000000       0x24 sqrt32.o
 .debug_abbrev  0x0000000000000000       0x14 sqrt32.o
 .debug_aranges
                0x0000000000000000       0x20 sqrt32.o
 .debug_str     0x0000000000000000       0xa7 sqrt32.o
 .text          0x0000000000000000        0x0 udiv32.o
 .data          0x0000000000000000        0x0 udiv32.o
 .bss           0x0000000000000000        0x0 udiv32.o
 .text          0x0000000000000000        0x0 huffman.o
 .data          0x0000000000000000        0x0 huffman.o
 .bss           0x0000000000000000        0x0 huffman.o
 .text          0x0000000000000000        0x0 lz77.o
 .data          0x0000000000000000        0x0 lz77.o
 .bss           0x0000000000000000        0x0 lz77.o
 .text          0x0000000000000000        0x0 running_length.o
 .data          0x0000000000000000        0x0 running_length.o
 .bss           0x0000000000000000        0x0 running_length.o
 .data          0x0000000000000000        0x0 /opt/devkitpro/libgba/lib/libmm.a(mm_mas.o)
 .data          0x0000000000000000        0x0 /opt/devkitpro/libgba/lib/libmm.a(mm_main.o)
 .data          0x0000000000000000        0x0 /opt/devkitpro/libgba/lib/libmm.a(mm_effect.o)
 .text          0x0000000000000000        0x0 /opt/devkitpro/libgba/lib/libmm.a(mm_mas_arm.o)
 .data          0x0000000000000000        0x0 /opt/devkitpro/libgba/lib/libmm.a(mm_mas_arm.o)
 .bss           0x0000000000000000        0x0 /opt/devkitpro/libgba/lib/libmm.a(mm_mas_arm.o)
 .data          0x0000000000000000        0x0 /opt/devkitpro/libgba/lib/libmm.a(mm_mixer_gba.o)
 .data          0x0000000000000000        0x0 /opt/devkitpro/libgba/lib/libmm.a(mm_main_gba.o)
 .data          0x0000000000000000        0x0 /opt/devkitpro/devkitARM/bin/../lib/gcc/arm-none-eabi/12.2.0/thumb/libgcc.a(_call_via_rX.o)
 .bss           0x0000000000000000        0x0 /opt/devkitpro/devkitARM/bin/../lib/gcc/arm-none-eabi/12.2.0/thumb/libgcc.a(_call_via_rX.o)
 .text          0x0000000000000000       0xd4 /opt/devkitpro/devkitARM/bin/../lib/gcc/arm-none-eabi/12.2.0/thumb/libgcc.a(_aeabi_ldivmod.o)
 .data          0x0000000000000000        0x0 /opt/devkitpro/devkitARM/bin/../lib/gcc/arm-none-eabi/12.2.0/thumb/libgcc.a(_aeabi_ldivmod.o)
 .bss           0x0000000000000000        0x0 /opt/devkitpro/devkitARM/bin/../lib/gcc/arm-none-eabi/12.2.0/thumb/libgcc.a(_aeabi_ldivmod.o)
 .text          0x0000000000000000       0x3c /opt/devkitpro/devkitARM/bin/../lib/gcc/arm-none-eabi/12.2.0/thumb/libgcc.a(_aeabi_uldivmod.o)
 .data          0x0000000000000000        0x0 /opt/devkitpro/devkitARM/bin/../lib/gcc/arm-none-eabi/12.2.0/thumb/libgcc.a(_aeabi_uldivmod.o)
 .bss           0x0000000000000000        0x0 /opt/devkitpro/devkitARM/bin/../lib/gcc/arm-none-eabi/12.2.0/thumb/libgcc.a(_aeabi_uldivmod.o)
 .text          0x0000000000000000        0x0 /opt/devkitpro/devkitARM/bin/../lib/gcc/arm-none-eabi/12.2.0/thumb/libgcc.a(_udivmoddi4.o)
 .data          0x0000000000000000        0x0 /opt/devkitpro/devkitARM/bin/../lib/gcc/arm-none-eabi/12.2.0/thumb/libgcc.a(_udivmoddi4.o)
 .bss           0x0000000000000000        0x0 /opt/devkitpro/devkitARM/bin/../lib/gcc/arm-none-eabi/12.2.0/thumb/libgcc.a(_udivmoddi4.o)
 .text.__udivmoddi4
                0x0000000000000000      0x19c /opt/devkitpro/devkitARM/bin/../lib/gcc/arm-none-eabi/12.2.0/thumb/libgcc.a(_udivmoddi4.o)
 .comment       0x0000000000000000       0x24 /opt/devkitpro/devkitARM/bin/../lib/gcc/arm-none-eabi/12.2.0/thumb/libgcc.a(_udivmoddi4.o)
 .text          0x0000000000000000        0x0 /opt/devkitpro/devkitARM/bin/../lib/gcc/arm-none-eabi/12.2.0/../../../../arm-none-eabi/lib/thumb/libg.a(lib_a-init.o)
 .data          0x0000000000000000        0x0 /opt/devkitpro/devkitARM/bin/../lib/gcc/arm-none-eabi/12.2.0/../../../../arm-none-eabi/lib/thumb/libg.a(lib_a-init.o)
 .bss           0x0000000000000000        0x0 /opt/devkitpro/devkitARM/bin/../lib/gcc/arm-none-eabi/12.2.0/../../../../arm-none-eabi/lib/thumb/libg.a(lib_a-init.o)
 .text          0x0000000000000000        0x0 /opt/devkitpro/devkitARM/bin/../lib/gcc/arm-none-eabi/12.2.0/../../../../arm-none-eabi/lib/thumb/libg.a(lib_a-memcmp.o)
 .data          0x0000000000000000        0x0 /opt/devkitpro/devkitARM/bin/../lib/gcc/arm-none-eabi/12.2.0/../../../../arm-none-eabi/lib/thumb/libg.a(lib_a-memcmp.o)
 .bss           0x0000000000000000        0x0 /opt/devkitpro/devkitARM/bin/../lib/gcc/arm-none-eabi/12.2.0/../../../../arm-none-eabi/lib/thumb/libg.a(lib_a-memcmp.o)
 .text          0x0000000000000000        0x0 /opt/devkitpro/devkitARM/bin/../lib/gcc/arm-none-eabi/12.2.0/../../../../arm-none-eabi/lib/thumb/libsysbase.a(malloc_vars.o)
 .data          0x0000000000000000        0x0 /opt/devkitpro/devkitARM/bin/../lib/gcc/arm-none-eabi/12.2.0/../../../../arm-none-eabi/lib/thumb/libsysbase.a(malloc_vars.o)
 .bss           0x0000000000000000        0x0 /opt/devkitpro/devkitARM/bin/../lib/gcc/arm-none-eabi/12.2.0/../../../../arm-none-eabi/lib/thumb/libsysbase.a(malloc_vars.o)
 .bss.fake_heap_start
                0x0000000000000000        0x4 /opt/devkitpro/devkitARM/bin/../lib/gcc/arm-none-eabi/12.2.0/../../../../arm-none-eabi/lib/thumb/libsysbase.a(malloc_vars.o)
 .text          0x0000000000000000        0x0 /opt/devkitpro/devkitARM/bin/../lib/gcc/arm-none-eabi/12.2.0/thumb/crtend.o
 .data          0x0000000000000000        0x0 /opt/devkitpro/devkitARM/bin/../lib/gcc/arm-none-eabi/12.2.0/thumb/crtend.o
 .bss           0x0000000000000000        0x0 /opt/devkitpro/devkitARM/bin/../lib/gcc/arm-none-eabi/12.2.0/thumb/crtend.o
 .rodata.all_implied_fbits
                0x0000000000000000       0x24 /opt/devkitpro/devkitARM/bin/../lib/gcc/arm-none-eabi/12.2.0/thumb/crtend.o
 .text          0x0000000000000000        0x0 /opt/devkitpro/devkitARM/bin/../lib/gcc/arm-none-eabi/12.2.0/thumb/crtn.o
 .data          0x0000000000000000        0x0 /opt/devkitpro/devkitARM/bin/../lib/gcc/arm-none-eabi/12.2.0/thumb/crtn.o
 .bss           0x0000000000000000        0x0 /opt/devkitpro/devkitARM/bin/../lib/gcc/arm-none-eabi/12.2.0/thumb/crtn.o

Memory Configuration

Name             Origin             Length             Attributes
rom              0x0000000008000000 0x0000000002000000
iwram            0x0000000003000000 0x0000000000008000
ewram            0x0000000002000000 0x0000000000040000
*default*        0x0000000000000000 0xffffffffffffffff

Linker script and memory map

                0x0000000008000000                __text_start = ORIGIN (rom)
                0x0000000002040000                __eheap_end = (ORIGIN (ewram) + LENGTH (ewram))
                0x0000000003000000                __iwram_start = ORIGIN (iwram)
                0x0000000003008000                __iwram_top = (ORIGIN (iwram) + LENGTH (iwram))
                0x0000000003007fa0                __sp_irq = (__iwram_top - 0x60)
                0x0000000003007f00                __sp_usr = (__sp_irq - 0xa0)
                0x0000000003007ff8                __irq_flags = 0x3007ff8
                0x0000000008000000                . = __text_start

.crt0           0x0000000008000000      0x210
 *(.crt0)
 .crt0          0x0000000008000000      0x210 /opt/devkitpro/devkitARM/bin/../lib/gcc/arm-none-eabi/12.2.0/../../../../arm-none-eabi/lib/thumb/gba_crt0.o
                0x0000000008000000                _start
                0x00000000080000c4                __boot_method
                0x00000000080000c5                __slave_number
                0x00000000080000e0                start_vector
                0x0000000008000210                . = ALIGN (0x4)

.init           0x0000000008000210        0xc
 *(SORT_NONE(.init))
 .init          0x0000000008000210        0x4 /opt/devkitpro/devkitARM/bin/../lib/gcc/arm-none-eabi/12.2.0/thumb/crti.o
                0x0000000008000210                _init
 .init          0x0000000008000214        0x8 /opt/devkitpro/devkitARM/bin/../lib/gcc/arm-none-eabi/12.2.0/thumb/crtn.o

.plt            0x000000000800021c        0x0
 *(.plt)
                0x000000000800021c                . = ALIGN (0x4)

.text           0x0000000008000220    0x11bb0
 *(EXCLUDE_FILE(*.iwram*) .text*)
 .text.__do_global_dtors_aux
                0x0000000008000220       0x2c /opt/devkitpro/devkitARM/bin/../lib/gcc/arm-none-eabi/12.2.0/thumb/crtbegin.o
 .text.frame_dummy
                0x000000000800024c       0x24 /opt/devkitpro/devkitARM/bin/../lib/gcc/arm-none-eabi/12.2.0/thumb/crtbegin.o
 .text.startup.main
                0x0000000008000270       0xa4 main.o
                0x0000000008000270                main
 .text._ZN3_bn6assert9show_argsIA22_cEEvPKcS4_S4_iRKT_
                0x0000000008000314       0x50 npc.o
                0x0000000008000314                void _bn::assert::show_args<char [22]>(char const*, char const*, char const*, int, char const (&) [22])
 .text._ZN3_bn6assert9show_argsIA15_cEEvPKcS4_S4_iRKT_
                0x0000000008000364       0x50 npc.o
                0x0000000008000364                void _bn::assert::show_args<char [15]>(char const*, char const*, char const*, int, char const (&) [15])
 .text._ZN2gm3NPCC2EN2bn10sprite_ptrENS1_17sprite_tiles_itemENS1_10camera_ptrE
                0x00000000080003b4      0x1a0 npc.o
                0x00000000080003b4                gm::NPC::NPC(bn::sprite_ptr, bn::sprite_tiles_item, bn::camera_ptr)
                0x00000000080003b4                gm::NPC::NPC(bn::sprite_ptr, bn::sprite_tiles_item, bn::camera_ptr)
 .text._ZN3_bn6assert9show_argsIJA16_ciA4_ciEEEvPKcS5_S5_iDpRKT_
                0x0000000008000554       0x6c npc.o
                0x0000000008000554                void _bn::assert::show_args<char [16], int, char [4], int>(char const*, char const*, char const*, int, char const (&) [16], int const&, char const (&) [4], int const&)
 .text._ZN2gm6Player14UpdatePositionEN2bn11fixed_pointE
                0x00000000080005c0       0x50 player.o
                0x00000000080005c0                gm::Player::UpdatePosition(bn::fixed_point)
 .text._ZN2gm6Player10TurnSpriteENS_15PlayerDirectionE
                0x0000000008000610       0x84 player.o
                0x0000000008000610                gm::Player::TurnSprite(gm::PlayerDirection)
 .text._ZN2gm6Player13HandleTurningENS_15PlayerDirectionE
                0x0000000008000694       0x38 player.o
                0x0000000008000694                gm::Player::HandleTurning(gm::PlayerDirection)
 .text._ZN2gm6Player15CheckForTurningEv
                0x00000000080006cc       0xd8 player.o
                0x00000000080006cc                gm::Player::CheckForTurning()
 .text._ZN3_bn6assert9show_argsIA27_ciEEvPKcS4_S4_iRKT_RKT0_
                0x00000000080007a4       0x58 player.o
                0x00000000080007a4                void _bn::assert::show_args<char [27], int>(char const*, char const*, char const*, int, char const (&) [27], int const&)
 .text._ZN2gm6PlayerC2EPNS_5StateEN2bn10sprite_ptrENS3_17sprite_tiles_itemENS3_10camera_ptrE
                0x00000000080007fc      0x100 player.o
                0x00000000080007fc                gm::Player::Player(gm::State*, bn::sprite_ptr, bn::sprite_tiles_item, bn::camera_ptr)
                0x00000000080007fc                gm::Player::Player(gm::State*, bn::sprite_ptr, bn::sprite_tiles_item, bn::camera_ptr)
 .text._ZN2gm6Player16GetWalkAnimationENS_15PlayerDirectionE
                0x00000000080008fc      0x4a8 player.o
                0x00000000080008fc                gm::Player::GetWalkAnimation(gm::PlayerDirection)
 .text._ZN2gm6Player15GetRunAnimationENS_15PlayerDirectionE
                0x0000000008000da4      0x4d8 player.o
                0x0000000008000da4                gm::Player::GetRunAnimation(gm::PlayerDirection)
 .text._ZN2gm6Player13HandleWalkingENS_15PlayerDirectionEN2bn11fixed_pointE
                0x000000000800127c      0x168 player.o
                0x000000000800127c                gm::Player::HandleWalking(gm::PlayerDirection, bn::fixed_point)
 .text._ZN2gm6Player15CheckForWalkingEv
                0x00000000080013e4      0x120 player.o
                0x00000000080013e4                gm::Player::CheckForWalking()
 .text._ZN2gm6Player13HandleRunningENS_15PlayerDirectionEN2bn11fixed_pointE
                0x0000000008001504      0x180 player.o
                0x0000000008001504                gm::Player::HandleRunning(gm::PlayerDirection, bn::fixed_point)
 .text._ZN2gm6Player15CheckForRunningEv
                0x0000000008001684       0xf8 player.o
                0x0000000008001684                gm::Player::CheckForRunning()
 .text._ZN2gm6Player16HandleStationaryEv
                0x000000000800177c       0x58 player.o
                0x000000000800177c                gm::Player::HandleStationary()
 .text._ZN2gm6Player14check_movementEv
                0x00000000080017d4      0x170 player.o
                0x00000000080017d4                gm::Player::check_movement()
 .text._ZN2gm5StateC2Ev
                0x0000000008001944       0x10 state.o
                0x0000000008001944                gm::State::State()
                0x0000000008001944                gm::State::State()
 .text._ZNK2gm5State14GetPlayerStateEv
                0x0000000008001954        0x4 state.o
                0x0000000008001954                gm::State::GetPlayerState() const
 .text._ZN2gm5State14SetPlayerStateENS_11PlayerStateE
                0x0000000008001958        0x4 state.o
                0x0000000008001958                gm::State::SetPlayerState(gm::PlayerState)
 .text._ZNK2gm5State18GetPlayerDirectionEv
                0x000000000800195c        0x4 state.o
                0x000000000800195c                gm::State::GetPlayerDirection() const
 .text._ZN2gm5State18SetPlayerDirectionENS_15PlayerDirectionE
                0x0000000008001960        0x4 state.o
                0x0000000008001960                gm::State::SetPlayerDirection(gm::PlayerDirection)
 .text._ZN3_bn6assert9show_argsIA16_ciEEvPKcS4_S4_iRKT_RKT0_
                0x0000000008001964       0x58 common_info.o
                0x0000000008001964                void _bn::assert::show_args<char [16], int>(char const*, char const*, char const*, int, char const (&) [16], int const&)
 .text._ZN3_bn6assert9show_argsIA15_ciEEvPKcS4_S4_iRKT_RKT0_
                0x00000000080019bc       0x58 common_stats.o
                0x00000000080019bc                void _bn::assert::show_args<char [15], int>(char const*, char const*, char const*, int, char const (&) [15], int const&)
 .text._ZN2bn13audio_manager4initEv
                0x0000000008001a14        0xc bn_audio_manager.o
                0x0000000008001a14                bn::audio_manager::init()
 .text._ZN2bn13audio_manager7disableEv
                0x0000000008001a20        0xc bn_audio_manager.o
                0x0000000008001a20                bn::audio_manager::disable()
 .text._ZN2bn13audio_manager22disable_vblank_handlerEv
                0x0000000008001a2c        0xc bn_audio_manager.o
                0x0000000008001a2c                bn::audio_manager::disable_vblank_handler()
 .text._ZN2bn13audio_manager6updateEv
                0x0000000008001a38       0x18 bn_audio_manager.o
                0x0000000008001a38                bn::audio_manager::update()
 .text._ZN2bn13audio_manager6commitEv
                0x0000000008001a50        0xc bn_audio_manager.o
                0x0000000008001a50                bn::audio_manager::commit()
 .text._ZN3_bn6assert9show_argsIA18_ciEEvPKcS4_S4_iRKT_RKT0_
                0x0000000008001a5c       0x58 bn_audio_manager.o
                0x0000000008001a5c                void _bn::assert::show_args<char [18], int>(char const*, char const*, char const*, int, char const (&) [18], int const&)
 .text._ZN3_bn6assert9show_argsIA14_ciEEvPKcS4_S4_iRKT_RKT0_
                0x0000000008001ab4       0x58 bn_audio_manager.o
                0x0000000008001ab4                void _bn::assert::show_args<char [14], int>(char const*, char const*, char const*, int, char const (&) [14], int const&)
 .text._ZN2bn13audio_manager16execute_commandsEv
                0x0000000008001b0c      0x178 bn_audio_manager.o
                0x0000000008001b0c                bn::audio_manager::execute_commands()
 .text._ZN3_bn6assert9show_argsIA26_ciEEvPKcS4_S4_iRKT_RKT0_
                0x0000000008001c84       0x58 bn_audio_manager.o
                0x0000000008001c84                void _bn::assert::show_args<char [26], int>(char const*, char const*, char const*, int, char const (&) [26], int const&)
 .text._ZN3_bn6assert9show_argsIA33_cEEvPKcS4_S4_iRKT_
                0x0000000008001cdc       0x50 bn_audio_manager.o
                0x0000000008001cdc                void _bn::assert::show_args<char [33]>(char const*, char const*, char const*, int, char const (&) [33])
 .text._ZN3_bn6assert9show_argsIA25_cEEvPKcS4_S4_iRKT_
                0x0000000008001d2c       0x50 bn_audio_manager.o
                0x0000000008001d2c                void _bn::assert::show_args<char [25]>(char const*, char const*, char const*, int, char const (&) [25])
 .text._ZN2bn13audio_manager10stop_musicEv
                0x0000000008001d7c       0x70 bn_audio_manager.o
                0x0000000008001d7c                bn::audio_manager::stop_music()
 .text._ZN2bn13audio_manager4stopEv
                0x0000000008001dec       0x5c bn_audio_manager.o
                0x0000000008001dec                bn::audio_manager::stop()
 .text._ZN3_bn6assert9show_argsIA24_cEEvPKcS4_S4_iRKT_
                0x0000000008001e48       0x50 bn_audio_manager.o
                0x0000000008001e48                void _bn::assert::show_args<char [24]>(char const*, char const*, char const*, int, char const (&) [24])
 .text.startup._GLOBAL__sub_I__ZN2bn5audio16update_on_vblankEv
                0x0000000008001e98       0x30 bn_audio_manager.o
 .text._ZN3_bn6assert9show_argsIA23_cEEvPKcS4_S4_iRKT_
                0x0000000008001ec8       0x50 bn_best_fit_allocator.o
                0x0000000008001ec8                void _bn::assert::show_args<char [23]>(char const*, char const*, char const*, int, char const (&) [23])
 .text._ZN2bn18best_fit_allocatorD2Ev
                0x0000000008001f18       0x34 bn_best_fit_allocator.o
                0x0000000008001f18                bn::best_fit_allocator::~best_fit_allocator()
                0x0000000008001f18                bn::best_fit_allocator::~best_fit_allocator()
 .text._ZN2bn18best_fit_allocator5allocEi
                0x0000000008001f4c       0xf8 bn_best_fit_allocator.o
                0x0000000008001f4c                bn::best_fit_allocator::alloc(int)
 .text._ZN3_bn6assert9show_argsIA14_cEEvPKcS4_S4_iRKT_
                0x0000000008002044       0x50 bn_best_fit_allocator.o
                0x0000000008002044                void _bn::assert::show_args<char [14]>(char const*, char const*, char const*, int, char const (&) [14])
 .text._ZN3_bn6assert9show_argsIA21_cEEvPKcS4_S4_iRKT_
                0x0000000008002094       0x50 bn_best_fit_allocator.o
                0x0000000008002094                void _bn::assert::show_args<char [21]>(char const*, char const*, char const*, int, char const (&) [21])
 .text._ZN2bn18best_fit_allocator5resetEPvi
                0x00000000080020e4       0xc0 bn_best_fit_allocator.o
                0x00000000080020e4                bn::best_fit_allocator::reset(void*, int)
 .text._ZN2bn13ostringstream11append_argsIiJA4_ciEEEvRKT_DpRKT0_.isra.0
                0x00000000080021a4       0x24 bn_bg_blocks_manager.o
 .text._ZNK2bn18regular_bg_map_ptr2idEv
                0x00000000080021c8       0x18 bn_bg_blocks_manager.o
                0x00000000080021c8                bn::regular_bg_map_ptr::id() const
 .text._ZNK2bn18regular_bg_map_ptr10dimensionsEv
                0x00000000080021e0       0x20 bn_bg_blocks_manager.o
                0x00000000080021e0                bn::regular_bg_map_ptr::dimensions() const
 .text._ZNK2bn20regular_bg_tiles_ptr3cbbEv
                0x0000000008002200       0x18 bn_bg_blocks_manager.o
                0x0000000008002200                bn::regular_bg_tiles_ptr::cbb() const
 .text._ZNK2bn17affine_bg_map_ptr2idEv
                0x0000000008002218       0x18 bn_bg_blocks_manager.o
                0x0000000008002218                bn::affine_bg_map_ptr::id() const
 .text._ZNK2bn17affine_bg_map_ptr10dimensionsEv
                0x0000000008002230       0x20 bn_bg_blocks_manager.o
                0x0000000008002230                bn::affine_bg_map_ptr::dimensions() const
 .text._ZNK2bn19affine_bg_tiles_ptr3cbbEv
                0x0000000008002250       0x18 bn_bg_blocks_manager.o
                0x0000000008002250                bn::affine_bg_tiles_ptr::cbb() const
 .text._ZN2bn17bg_blocks_manager15decrease_usagesEi
                0x0000000008002268       0x98 bn_bg_blocks_manager.o
                0x0000000008002268                bn::bg_blocks_manager::decrease_usages(int)
 .text._ZN2bn17bg_blocks_manager12_GLOBAL__N_110items_list12insert_afterEiRKNS1_9item_typeE.constprop.0
                0x0000000008002300      0x240 bn_bg_blocks_manager.o
 .text._ZN2bn17bg_blocks_manager4initEv
                0x0000000008002540       0x7c bn_bg_blocks_manager.o
                0x0000000008002540                bn::bg_blocks_manager::init()
 .text._ZN2bn17bg_blocks_manager11must_commitEi
                0x00000000080025bc       0x18 bn_bg_blocks_manager.o
                0x00000000080025bc                bn::bg_blocks_manager::must_commit(int)
 .text._ZN3_bn6assert9show_argsIJA22_ciA4_ciEEEvPKcS5_S5_iDpRKT_
                0x00000000080025d4       0x5c bn_bg_blocks_manager.o
                0x00000000080025d4                void _bn::assert::show_args<char [22], int, char [4], int>(char const*, char const*, char const*, int, char const (&) [22], int const&, char const (&) [4], int const&)
 .text._ZN3_bn6assert9show_argsIJA58_ciA4_ciEEEvPKcS5_S5_iDpRKT_
                0x0000000008002630       0x5c bn_bg_blocks_manager.o
                0x0000000008002630                void _bn::assert::show_args<char [58], int, char [4], int>(char const*, char const*, char const*, int, char const (&) [58], int const&, char const (&) [4], int const&)
 .text._ZN3_bn6assert9show_argsIA22_ciEEvPKcS4_S4_iRKT_RKT0_
                0x000000000800268c       0x58 bn_bg_blocks_manager.o
                0x000000000800268c                void _bn::assert::show_args<char [22], int>(char const*, char const*, char const*, int, char const (&) [22], int const&)
 .text._ZN3_bn6assert9show_argsIA19_cEEvPKcS4_S4_iRKT_
                0x00000000080026e4       0x50 bn_bg_blocks_manager.o
                0x00000000080026e4                void _bn::assert::show_args<char [19]>(char const*, char const*, char const*, int, char const (&) [19])
 .text._ZNK2bn18regular_bg_map_ptr5tilesEv
                0x0000000008002734       0x48 bn_bg_blocks_manager.o
                0x0000000008002734                bn::regular_bg_map_ptr::tiles() const
 .text._ZNK2bn17affine_bg_map_ptr5tilesEv
                0x000000000800277c       0x48 bn_bg_blocks_manager.o
                0x000000000800277c                bn::affine_bg_map_ptr::tiles() const
 .text._ZNK2bn18regular_bg_map_ptr3bppEv
                0x00000000080027c4       0x4c bn_bg_blocks_manager.o
                0x00000000080027c4                bn::regular_bg_map_ptr::bpp() const
 .text._ZN2bn17bg_blocks_manager21update_affine_map_rowEiii
                0x0000000008002810      0x104 bn_bg_blocks_manager.o
                0x0000000008002810                bn::bg_blocks_manager::update_affine_map_row(int, int, int)
 .text._ZN2bn17bg_blocks_manager23set_affine_map_positionEiii
                0x0000000008002914      0x1b0 bn_bg_blocks_manager.o
                0x0000000008002914                bn::bg_blocks_manager::set_affine_map_position(int, int, int)
 .text._ZN2bn17bg_blocks_manager21update_affine_map_colEiii
                0x0000000008002ac4      0x224 bn_bg_blocks_manager.o
                0x0000000008002ac4                bn::bg_blocks_manager::update_affine_map_col(int, int, int)
 .text._ZN2bn17bg_blocks_manager22update_regular_map_colEiii
                0x0000000008002ce8      0x174 bn_bg_blocks_manager.o
                0x0000000008002ce8                bn::bg_blocks_manager::update_regular_map_col(int, int, int)
 .text._ZN2bn17bg_blocks_manager22update_regular_map_rowEiii
                0x0000000008002e5c      0x14c bn_bg_blocks_manager.o
                0x0000000008002e5c                bn::bg_blocks_manager::update_regular_map_row(int, int, int)
 .text._ZN2bn17bg_blocks_manager24set_regular_map_positionEiii
                0x0000000008002fa8      0x1d8 bn_bg_blocks_manager.o
                0x0000000008002fa8                bn::bg_blocks_manager::set_regular_map_position(int, int, int)
 .text._ZN2bn17bg_blocks_manager12_GLOBAL__N_112_commit_itemERKNS1_9item_typeE
                0x0000000008003180      0x2bc bn_bg_blocks_manager.o
 .text._ZN2bn17bg_blocks_manager6commitEv
                0x000000000800343c       0x40 bn_bg_blocks_manager.o
                0x000000000800343c                bn::bg_blocks_manager::commit()
 .text._ZN3_bn6assert9show_argsIA26_cEEvPKcS4_S4_iRKT_
                0x000000000800347c       0x50 bn_bg_blocks_manager.o
                0x000000000800347c                void _bn::assert::show_args<char [26]>(char const*, char const*, char const*, int, char const (&) [26])
 .text._ZN3_bn6assert9show_argsIA17_cEEvPKcS4_S4_iRKT_
                0x00000000080034cc       0x50 bn_bg_blocks_manager.o
                0x00000000080034cc                void _bn::assert::show_args<char [17]>(char const*, char const*, char const*, int, char const (&) [17])
 .text._ZN2bn13ostringstream11append_argsIA4_cJiEEEvRKT_DpRKT0_
                0x000000000800351c       0x18 bn_bg_blocks_manager.o
                0x000000000800351c                void bn::ostringstream::append_args<char [4], int>(char const (&) [4], int const&)
 .text._ZN3_bn6assert9show_argsIJA39_cPKN2bn4tileEA4_ciEEEvPKcS9_S9_iDpRKT_
                0x0000000008003534       0x64 bn_bg_blocks_manager.o
                0x0000000008003534                void _bn::assert::show_args<char [39], bn::tile const*, char [4], int>(char const*, char const*, char const*, int, char const (&) [39], bn::tile const* const&, char const (&) [4], int const&)
 .text._ZN3_bn6assert9show_argsIA25_ciEEvPKcS4_S4_iRKT_RKT0_
                0x0000000008003598       0x58 bn_bg_blocks_manager.o
                0x0000000008003598                void _bn::assert::show_args<char [25], int>(char const*, char const*, char const*, int, char const (&) [25], int const&)
 .text._ZN2bn14iunordered_mapIPKviNS_17bg_blocks_manager12_GLOBAL__N_115identity_hasherENS_8equal_toIS2_EEE5eraseERKNS8_14const_iteratorE.constprop.0.isra.0
                0x00000000080035f0      0x1a8 bn_bg_blocks_manager.o
 .text._ZN2bn17bg_blocks_manager12_GLOBAL__N_121_remove_adjacent_itemEiRNS1_9item_typeE
                0x0000000008003798       0xcc bn_bg_blocks_manager.o
 .text._ZN2bn17bg_blocks_manager6updateEv
                0x0000000008003864      0x200 bn_bg_blocks_manager.o
                0x0000000008003864                bn::bg_blocks_manager::update()
 .text.startup._GLOBAL__sub_I__ZN2bn7bg_maps16used_cells_countEv
                0x0000000008003a64       0x98 bn_bg_blocks_manager.o
 .text.exit._GLOBAL__sub_D__ZN2bn7bg_maps16used_cells_countEv
                0x0000000008003afc       0x50 bn_bg_blocks_manager.o
 .text._ZN2bn11bgs_manager12_GLOBAL__N_133_update_item_hw_affine_attributesERKNS1_9item_typeE
                0x0000000008003b4c       0x48 bn_bgs_manager.o
 .text._ZN2bn13ostringstream11append_argsIiJA4_ciEEEvRKT_DpRKT0_.isra.0
                0x0000000008003b94       0x24 bn_bgs_manager.o
 .text._ZN2bn11bgs_manager5hw_idEPv
                0x0000000008003bb8        0x8 bn_bgs_manager.o
                0x0000000008003bb8                bn::bgs_manager::hw_id(void*)
 .text._ZN2bn11bgs_manager11hw_positionEPv
                0x0000000008003bc0        0x4 bn_bgs_manager.o
                0x0000000008003bc0                bn::bgs_manager::hw_position(void*)
 .text._ZN2bn11bgs_manager14mat_attributesEPv
                0x0000000008003bc4        0x4 bn_bgs_manager.o
                0x0000000008003bc4                bn::bgs_manager::mat_attributes(void*)
 .text._ZN2bn11bgs_manager20update_windows_flagsEPj
                0x0000000008003bc8       0x7c bn_bgs_manager.o
                0x0000000008003bc8                bn::bgs_manager::update_windows_flags(unsigned int*)
 .text._ZN2bn11bgs_manager36fill_hblank_effect_regular_positionsEiPKNS_7fixed_tILi12EEEPt
                0x0000000008003c44       0x38 bn_bgs_manager.o
                0x0000000008003c44                bn::bgs_manager::fill_hblank_effect_regular_positions(int, bn::fixed_t<12> const*, unsigned short*)
 .text._ZN2bn11bgs_manager45fill_hblank_effect_pivot_horizontal_positionsEPvPKNS_7fixed_tILi12EEEPj
                0x0000000008003c7c       0x24 bn_bgs_manager.o
                0x0000000008003c7c                bn::bgs_manager::fill_hblank_effect_pivot_horizontal_positions(void*, bn::fixed_t<12> const*, unsigned int*)
 .text._ZN2bn11bgs_manager43fill_hblank_effect_pivot_vertical_positionsEPvPKNS_7fixed_tILi12EEEPj
                0x0000000008003ca0       0x24 bn_bgs_manager.o
                0x0000000008003ca0                bn::bgs_manager::fill_hblank_effect_pivot_vertical_positions(void*, bn::fixed_t<12> const*, unsigned int*)
 .text._ZN2bn11bgs_manager6commitEb
                0x0000000008003cc4       0x58 bn_bgs_manager.o
                0x0000000008003cc4                bn::bgs_manager::commit(bool)
 .text._ZN2bn11bgs_manager4stopEv
                0x0000000008003d1c       0x28 bn_bgs_manager.o
                0x0000000008003d1c                bn::bgs_manager::stop()
 .text._ZN3_bn6assert9show_argsIA30_cEEvPKcS4_S4_iRKT_
                0x0000000008003d44       0x50 bn_bgs_manager.o
                0x0000000008003d44                void _bn::assert::show_args<char [30]>(char const*, char const*, char const*, int, char const (&) [30])
 .text._ZN3_bn6assert9show_argsIJA60_ciA4_ciEEEvPKcS5_S5_iDpRKT_
                0x0000000008003d94       0x5c bn_bgs_manager.o
                0x0000000008003d94                void _bn::assert::show_args<char [60], int, char [4], int>(char const*, char const*, char const*, int, char const (&) [60], int const&, char const (&) [4], int const&)
 .text._ZN3_bn6assert9show_argsIJA59_ciA4_ciEEEvPKcS5_S5_iDpRKT_
                0x0000000008003df0       0x5c bn_bgs_manager.o
                0x0000000008003df0                void _bn::assert::show_args<char [59], int, char [4], int>(char const*, char const*, char const*, int, char const (&) [59], int const&, char const (&) [4], int const&)
 .text._ZN3_bn6assert9show_argsIJA57_ciA4_ciEEEvPKcS5_S5_iDpRKT_
                0x0000000008003e4c       0x5c bn_bgs_manager.o
                0x0000000008003e4c                void _bn::assert::show_args<char [57], int, char [4], int>(char const*, char const*, char const*, int, char const (&) [57], int const&, char const (&) [4], int const&)
 .text._ZN2bn11bgs_manager14update_camerasEv
                0x0000000008003ea8      0x2b4 bn_bgs_manager.o
                0x0000000008003ea8                bn::bgs_manager::update_cameras()
 .text._ZN3_bn6assert9show_argsIA27_cEEvPKcS4_S4_iRKT_
                0x000000000800415c       0x50 bn_bgs_manager.o
                0x000000000800415c                void _bn::assert::show_args<char [27]>(char const*, char const*, char const*, int, char const (&) [27])
 .text._ZN3_bn6assert9show_argsIA31_cEEvPKcS4_S4_iRKT_
                0x00000000080041ac       0x50 bn_bgs_manager.o
                0x00000000080041ac                void _bn::assert::show_args<char [31]>(char const*, char const*, char const*, int, char const (&) [31])
 .text._ZN2bn11bgs_manager15rebuild_handlesEv.part.0
                0x00000000080041fc      0x19c bn_bgs_manager.o
 .text._ZN2bn11bgs_manager37fill_hblank_effect_regular_attributesEPvPKNS_21regular_bg_attributesEPt
                0x0000000008004398      0x104 bn_bgs_manager.o
                0x0000000008004398                bn::bgs_manager::fill_hblank_effect_regular_attributes(void*, bn::regular_bg_attributes const*, unsigned short*)
 .text._ZN2bn11bgs_manager6updateEv
                0x000000000800449c      0x1d0 bn_bgs_manager.o
                0x000000000800449c                bn::bgs_manager::update()
 .text._ZN2bn11bgs_manager15commit_big_mapsEv
                0x000000000800466c      0x1d4 bn_bgs_manager.o
                0x000000000800466c                bn::bgs_manager::commit_big_maps()
 .text._ZN2bn11bgs_manager36fill_hblank_effect_affine_attributesEPvPKNS_20affine_bg_attributesEPt
                0x0000000008004840      0x108 bn_bgs_manager.o
                0x0000000008004840                bn::bgs_manager::fill_hblank_effect_affine_attributes(void*, bn::affine_bg_attributes const*, unsigned short*)
 .text._ZN2bn11bgs_manager10affine_mapEPv
                0x0000000008004948       0x34 bn_bgs_manager.o
                0x0000000008004948                bn::bgs_manager::affine_map(void*)
 .text._ZN2bn11bgs_manager11regular_mapEPv
                0x000000000800497c       0x34 bn_bgs_manager.o
                0x000000000800497c                bn::bgs_manager::regular_map(void*)
 .text._ZN3_bn6assert9show_argsIA13_cEEvPKcS4_S4_iRKT_
                0x00000000080049b0       0x50 bn_bgs_manager.o
                0x00000000080049b0                void _bn::assert::show_args<char [13]>(char const*, char const*, char const*, int, char const (&) [13])
 .text.startup._GLOBAL__sub_I__ZN2bn3bgs16used_items_countEv
                0x0000000008004a00       0x80 bn_bgs_manager.o
 .text.exit._GLOBAL__sub_D__ZN2bn3bgs16used_items_countEv
                0x0000000008004a80       0x14 bn_bgs_manager.o
 .text._ZN2bn10camera_ptrC2ERKS0_
                0x0000000008004a94       0x20 bn_cameras_manager.o
                0x0000000008004a94                bn::camera_ptr::camera_ptr(bn::camera_ptr const&)
                0x0000000008004a94                bn::camera_ptr::camera_ptr(bn::camera_ptr const&)
 .text._ZN2bn10camera_ptrD2Ev
                0x0000000008004ab4       0x38 bn_cameras_manager.o
                0x0000000008004ab4                bn::camera_ptr::~camera_ptr()
                0x0000000008004ab4                bn::camera_ptr::~camera_ptr()
 .text._ZNK2bn10camera_ptr8positionEv
                0x0000000008004aec       0x14 bn_cameras_manager.o
                0x0000000008004aec                bn::camera_ptr::position() const
 .text._ZN2bn10camera_ptr12set_positionERKNS_11fixed_pointE
                0x0000000008004b00       0x40 bn_cameras_manager.o
                0x0000000008004b00                bn::camera_ptr::set_position(bn::fixed_point const&)
 .text._ZN2bn15cameras_manager4initEv
                0x0000000008004b40       0x10 bn_cameras_manager.o
                0x0000000008004b40                bn::cameras_manager::init()
 .text._ZN2bn15cameras_manager6updateEv
                0x0000000008004b50       0x28 bn_cameras_manager.o
                0x0000000008004b50                bn::cameras_manager::update()
 .text._ZN2bn10camera_ptr6createENS_7fixed_tILi12EEES2_
                0x0000000008004b78       0x54 bn_cameras_manager.o
                0x0000000008004b78                bn::camera_ptr::create(bn::fixed_t<12>, bn::fixed_t<12>)
 .text._ZN2bn4core12_GLOBAL__N_111update_implEv
                0x0000000008004bcc       0xb0 bn_core.o
 .text._ZN2bn4core12_GLOBAL__N_14stopEb.constprop.0
                0x0000000008004c7c       0x40 bn_core.o
 .text._ZN2bn11string_viewC2EPKc
                0x0000000008004cbc       0x1c bn_core.o
                0x0000000008004cbc                bn::string_view::string_view(char const*)
                0x0000000008004cbc                bn::string_view::string_view(char const*)
 .text._ZN2bn4core6updateEv
                0x0000000008004cd8       0x78 bn_core.o
                0x0000000008004cd8                bn::core::update()
 .text._ZN2bn4core4initERKNS_11string_viewE
                0x0000000008004d50       0x94 bn_core.o
                0x0000000008004d50                bn::core::init(bn::string_view const&)
 .text._ZN2bn4core4initEv
                0x0000000008004de4       0x18 bn_core.o
                0x0000000008004de4                bn::core::init()
 .text._ZN2bn4core9on_vblankEv
                0x0000000008004dfc       0x28 bn_core.o
                0x0000000008004dfc                bn::core::on_vblank()
 .text._ZN3_bn6assert4showEPKcS2_S2_iRKN2bn12istring_baseE
                0x0000000008004e24       0x60 bn_core.o
                0x0000000008004e24                _bn::assert::show(char const*, char const*, char const*, int, bn::istring_base const&)
 .text.startup._GLOBAL__sub_I__ZN2bn4core4initEv
                0x0000000008004e84       0x40 bn_core.o
 .text._ZN2bn15display_manager12_GLOBAL__N_134_update_rect_windows_hw_boundariesEi
                0x0000000008004ec4       0x8c bn_display_manager.o
 .text._ZN2bn15display_manager4initEv
                0x0000000008004f50       0x40 bn_display_manager.o
                0x0000000008004f50                bn::display_manager::init()
 .text._ZN2bn15display_manager8set_modeEi
                0x0000000008004f90       0x1c bn_display_manager.o
                0x0000000008004f90                bn::display_manager::set_mode(int)
 .text._ZN2bn15display_manager14set_bg_enabledEib
                0x0000000008004fac       0x1c bn_display_manager.o
                0x0000000008004fac                bn::display_manager::set_bg_enabled(int, bool)
 .text._ZN2bn15display_manager15disable_all_bgsEv
                0x0000000008004fc8       0x18 bn_display_manager.o
                0x0000000008004fc8                bn::display_manager::disable_all_bgs()
 .text._ZN2bn15display_manager36fill_mosaic_hblank_effect_attributesEPKNS_17mosaic_attributesEPt
                0x0000000008004fe0       0xb4 bn_display_manager.o
                0x0000000008004fe0                bn::display_manager::fill_mosaic_hblank_effect_attributes(bn::mosaic_attributes const*, unsigned short*)
 .text._ZN2bn15display_manager23set_blending_bg_enabledEib
                0x0000000008005094       0x14 bn_display_manager.o
                0x0000000008005094                bn::display_manager::set_blending_bg_enabled(int, bool)
 .text._ZN2bn15display_manager32blending_transparency_top_weightEv
                0x00000000080050a8       0x18 bn_display_manager.o
                0x00000000080050a8                bn::display_manager::blending_transparency_top_weight()
 .text._ZN2bn15display_manager35blending_transparency_bottom_weightEv
                0x00000000080050c0       0x28 bn_display_manager.o
                0x00000000080050c0                bn::display_manager::blending_transparency_bottom_weight()
 .text._ZN2bn15display_manager51fill_blending_transparency_hblank_effect_attributesEPKNS_32blending_transparency_attributesEPt
                0x00000000080050e8       0x30 bn_display_manager.o
                0x00000000080050e8                bn::display_manager::fill_blending_transparency_hblank_effect_attributes(bn::blending_transparency_attributes const*, unsigned short*)
 .text._ZN2bn15display_manager21blending_fade_enabledEv
                0x0000000008005118       0x10 bn_display_manager.o
                0x0000000008005118                bn::display_manager::blending_fade_enabled()
 .text._ZN2bn15display_manager39fill_blending_fade_hblank_effect_alphasEPKNS_19blending_fade_alphaEPt
                0x0000000008005128       0x24 bn_display_manager.o
                0x0000000008005128                bn::display_manager::fill_blending_fade_hblank_effect_alphas(bn::blending_fade_alpha const*, unsigned short*)
 .text._ZN2bn15display_manager26update_windows_visible_bgsEv
                0x000000000800514c       0x10 bn_display_manager.o
                0x000000000800514c                bn::display_manager::update_windows_visible_bgs()
 .text._ZN2bn15display_manager36rect_window_hw_horizontal_boundariesEi
                0x000000000800515c       0x14 bn_display_manager.o
                0x000000000800515c                bn::display_manager::rect_window_hw_horizontal_boundaries(int)
 .text._ZN2bn15display_manager34rect_window_hw_vertical_boundariesEi
                0x0000000008005170       0x14 bn_display_manager.o
                0x0000000008005170                bn::display_manager::rect_window_hw_vertical_boundaries(int)
 .text._ZN2bn15display_manager52fill_rect_window_hblank_effect_horizontal_boundariesERKNS_4pairIiiEEPKNS1_INS_7fixed_tILi12EEES6_EEPt
                0x0000000008005184      0x13c bn_display_manager.o
                0x0000000008005184                bn::display_manager::fill_rect_window_hblank_effect_horizontal_boundaries(bn::pair<int, int> const&, bn::pair<bn::fixed_t<12>, bn::fixed_t<12> > const*, unsigned short*)
 .text._ZN2bn15display_manager50fill_rect_window_hblank_effect_vertical_boundariesERKNS_4pairIiiEEPKNS1_INS_7fixed_tILi12EEES6_EEPt
                0x00000000080052c0      0x13c bn_display_manager.o
                0x00000000080052c0                bn::display_manager::fill_rect_window_hblank_effect_vertical_boundaries(bn::pair<int, int> const&, bn::pair<bn::fixed_t<12>, bn::fixed_t<12> > const*, unsigned short*)
 .text._ZN2bn15display_manager36fill_green_swap_hblank_effect_statesEPKbPt
                0x00000000080053fc       0x38 bn_display_manager.o
                0x00000000080053fc                bn::display_manager::fill_green_swap_hblank_effect_states(bool const*, unsigned short*)
 .text._ZN2bn15display_manager14update_camerasEv
                0x0000000008005434       0x40 bn_display_manager.o
                0x0000000008005434                bn::display_manager::update_cameras()
 .text._ZN2bn15display_manager6updateEv
                0x0000000008005474      0x214 bn_display_manager.o
                0x0000000008005474                bn::display_manager::update()
 .text._ZN2bn15display_manager6commitEv
                0x0000000008005688      0x164 bn_display_manager.o
                0x0000000008005688                bn::display_manager::commit()
 .text._ZN2bn15display_manager4stopEv
                0x00000000080057ec       0x28 bn_display_manager.o
                0x00000000080057ec                bn::display_manager::stop()
 .text._ZN3_bn6assert9show_argsIA66_cEEvPKcS4_S4_iRKT_
                0x0000000008005814       0x50 bn_display_manager.o
                0x0000000008005814                void _bn::assert::show_args<char [66]>(char const*, char const*, char const*, int, char const (&) [66])
 .text.startup._GLOBAL__sub_I__ZNK2bn6window7show_bgERKNS_14regular_bg_ptrE
                0x0000000008005864       0x7c bn_display_manager.o
 .text.exit._GLOBAL__sub_D__ZNK2bn6window7show_bgERKNS_14regular_bg_ptrE
                0x00000000080058e0       0x38 bn_display_manager.o
 .text._ZN2bn18igeneric_pool_baseC2EPci
                0x0000000008005918       0x10 bn_generic_pool.o
                0x0000000008005918                bn::igeneric_pool_base::igeneric_pool_base(char*, int)
                0x0000000008005918                bn::igeneric_pool_base::igeneric_pool_base(char*, int)
 .text._ZN2bn18igeneric_pool_base5_freeEPc
                0x0000000008005928       0x10 bn_generic_pool.o
                0x0000000008005928                bn::igeneric_pool_base::_free(char*)
 .text._ZN3_bn6assert9show_argsIA18_cEEvPKcS4_S4_iRKT_
                0x0000000008005938       0x50 bn_generic_pool.o
                0x0000000008005938                void _bn::assert::show_args<char [18]>(char const*, char const*, char const*, int, char const (&) [18])
 .text._ZN2bn18igeneric_pool_baseD2Ev
                0x0000000008005988       0x30 bn_generic_pool.o
                0x0000000008005988                bn::igeneric_pool_base::~igeneric_pool_base()
                0x0000000008005988                bn::igeneric_pool_base::~igeneric_pool_base()
 .text._ZN2bn18igeneric_pool_base9_allocateEv
                0x00000000080059b8       0x48 bn_generic_pool.o
                0x00000000080059b8                bn::igeneric_pool_base::_allocate()
 .text._ZN2bn12gpio_manager6commitEv
                0x0000000008005a00       0x48 bn_gpio_manager.o
                0x0000000008005a00                bn::gpio_manager::commit()
 .text._ZN2bn12gpio_manager4stopEv
                0x0000000008005a48       0x3c bn_gpio_manager.o
                0x0000000008005a48                bn::gpio_manager::stop()
 .text._ZN2bn22hblank_effects_manager12_GLOBAL__N_19item_type18_output_values_ptrEv
                0x0000000008005a84       0x40 bn_hblank_effects_manager.o
 .text._ZN2bn7type_idINS_4pairIiiEEEENS_9type_id_tEv
                0x0000000008005ac4        0x8 bn_hblank_effects_manager.o
                0x0000000008005ac4                bn::type_id_t bn::type_id<bn::pair<int, int> >()
 .text._ZN2bn7type_idINS_33regular_bg_attributes_hbe_handler15last_value_typeEEENS_9type_id_tEv
                0x0000000008005acc        0x8 bn_hblank_effects_manager.o
                0x0000000008005acc                bn::type_id_t bn::type_id<bn::regular_bg_attributes_hbe_handler::last_value_type>()
 .text._ZN2bn7type_idINS_32affine_bg_attributes_hbe_handler15last_value_typeEEENS_9type_id_tEv
                0x0000000008005ad4        0x8 bn_hblank_effects_manager.o
                0x0000000008005ad4                bn::type_id_t bn::type_id<bn::affine_bg_attributes_hbe_handler::last_value_type>()
 .text._ZN2bn7type_idIiEENS_9type_id_tEv
                0x0000000008005adc        0x8 bn_hblank_effects_manager.o
                0x0000000008005adc                bn::type_id_t bn::type_id<int>()
 .text._ZN2bn7type_idINS_47affine_bg_pivot_horizontal_position_hbe_handler15last_value_typeEEENS_9type_id_tEv
                0x0000000008005ae4        0x8 bn_hblank_effects_manager.o
                0x0000000008005ae4                bn::type_id_t bn::type_id<bn::affine_bg_pivot_horizontal_position_hbe_handler::last_value_type>()
 .text._ZN2bn7type_idINS_45affine_bg_pivot_vertical_position_hbe_handler15last_value_typeEEENS_9type_id_tEv
                0x0000000008005aec        0x8 bn_hblank_effects_manager.o
                0x0000000008005aec                bn::type_id_t bn::type_id<bn::affine_bg_pivot_vertical_position_hbe_handler::last_value_type>()
 .text._ZN2bn7type_idINS_35sprite_first_attributes_hbe_handler15last_value_typeEEENS_9type_id_tEv
                0x0000000008005af4        0x8 bn_hblank_effects_manager.o
                0x0000000008005af4                bn::type_id_t bn::type_id<bn::sprite_first_attributes_hbe_handler::last_value_type>()
 .text._ZN2bn7type_idINS_35sprite_second_attributes_last_valueEEENS_9type_id_tEv
                0x0000000008005afc        0x8 bn_hblank_effects_manager.o
                0x0000000008005afc                bn::type_id_t bn::type_id<bn::sprite_second_attributes_last_value>()
 .text._ZN2bn7type_idINS_17sprite_shape_sizeEEENS_9type_id_tEv
                0x0000000008005b04        0x8 bn_hblank_effects_manager.o
                0x0000000008005b04                bn::type_id_t bn::type_id<bn::sprite_shape_size>()
 .text._ZN2bn22hblank_effects_manager7disableEv
                0x0000000008005b0c       0x24 bn_hblank_effects_manager.o
                0x0000000008005b0c                bn::hblank_effects_manager::disable()
 .text._ZN2bn22hblank_effects_manager6commitEv
                0x0000000008005b30       0x74 bn_hblank_effects_manager.o
                0x0000000008005b30                bn::hblank_effects_manager::commit()
 .text._ZN2bn22hblank_effects_manager12_GLOBAL__N_110_is_uint32ENS0_12handler_typeE
                0x0000000008005ba4       0x64 bn_hblank_effects_manager.o
 .text._ZN2bn22hblank_effects_manager12_GLOBAL__N_19item_type12check_updateEv
                0x0000000008005c08     0x1b54 bn_hblank_effects_manager.o
 .text._ZN2bn22hblank_effects_manager6updateEv
                0x000000000800775c      0x1ec bn_hblank_effects_manager.o
                0x000000000800775c                bn::hblank_effects_manager::update()
 .text._ZN2bn22hblank_effects_manager4initEv
                0x0000000008007948       0xd4 bn_hblank_effects_manager.o
                0x0000000008007948                bn::hblank_effects_manager::init()
 .text._ZN3_bn6assert9show_argsIJA39_cPKN2bn5colorEA4_ciEEEvPKcS9_S9_iDpRKT_
                0x0000000008007a1c       0x64 bn_hblank_effects_manager.o
                0x0000000008007a1c                void _bn::assert::show_args<char [39], bn::color const*, char [4], int>(char const*, char const*, char const*, int, char const (&) [39], bn::color const* const&, char const (&) [4], int const&)
 .text.startup._GLOBAL__sub_I__ZN2bn4hbes10used_countEv
                0x0000000008007a80       0xfc bn_hblank_effects_manager.o
 .text.exit._GLOBAL__sub_D__ZN2bn4hbes10used_countEv
                0x0000000008007b7c       0x40 bn_hblank_effects_manager.o
 .text._ZN2bn12hdma_manager7disableEv
                0x0000000008007bbc       0x30 bn_hdma_manager.o
                0x0000000008007bbc                bn::hdma_manager::disable()
 .text._ZN2bn12hdma_manager10force_stopEv
                0x0000000008007bec       0x3c bn_hdma_manager.o
                0x0000000008007bec                bn::hdma_manager::force_stop()
 .text._ZN2bn12hdma_manager6updateEv
                0x0000000008007c28       0x6c bn_hdma_manager.o
                0x0000000008007c28                bn::hdma_manager::update()
 .text._ZN2bn12hdma_manager6commitEb
                0x0000000008007c94      0x118 bn_hdma_manager.o
                0x0000000008007c94                bn::hdma_manager::commit(bool)
 .text.startup._GLOBAL__sub_I__ZN2bn4hdma7runningEv
                0x0000000008007dac       0x34 bn_hdma_manager.o
 .text._ZN2bn6keypad6b_heldEv
                0x0000000008007de0       0x10 bn_keypad_manager.o
                0x0000000008007de0                bn::keypad::b_held()
 .text._ZN2bn6keypad10right_heldEv
                0x0000000008007df0       0x10 bn_keypad_manager.o
                0x0000000008007df0                bn::keypad::right_held()
 .text._ZN2bn6keypad9left_heldEv
                0x0000000008007e00       0x10 bn_keypad_manager.o
                0x0000000008007e00                bn::keypad::left_held()
 .text._ZN2bn6keypad7up_heldEv
                0x0000000008007e10       0x10 bn_keypad_manager.o
                0x0000000008007e10                bn::keypad::up_held()
 .text._ZN2bn6keypad9down_heldEv
                0x0000000008007e20       0x10 bn_keypad_manager.o
                0x0000000008007e20                bn::keypad::down_held()
 .text._ZN2bn14keypad_manager4stopEv
                0x0000000008007e30        0x4 bn_keypad_manager.o
                0x0000000008007e30                bn::keypad_manager::stop()
 .text._ZN3_bn6assert9show_argsIJA19_ciA4_ciEEEvPKcS5_S5_iDpRKT_
                0x0000000008007e34       0x6c bn_keypad_manager.o
                0x0000000008007e34                void _bn::assert::show_args<char [19], int, char [4], int>(char const*, char const*, char const*, int, char const (&) [19], int const&, char const (&) [4], int const&)
 .text._ZN2bn14keypad_manager6updateEv
                0x0000000008007ea0       0xa8 bn_keypad_manager.o
                0x0000000008007ea0                bn::keypad_manager::update()
 .text._ZN3_bn6assert9show_argsIA24_ciEEvPKcS4_S4_iRKT_RKT0_
                0x0000000008007f48       0x58 bn_keypad_manager.o
                0x0000000008007f48                void _bn::assert::show_args<char [24], int>(char const*, char const*, char const*, int, char const (&) [24], int const&)
 .text._ZN2bn14keypad_manager4initERKNS_11string_viewE
                0x0000000008007fa0       0x58 bn_keypad_manager.o
                0x0000000008007fa0                bn::keypad_manager::init(bn::string_view const&)
 .text._ZN3_bn6assert9show_argsIA16_cEEvPKcS4_S4_iRKT_
                0x0000000008007ff8       0x50 bn_keypad_manager.o
                0x0000000008007ff8                void _bn::assert::show_args<char [16]>(char const*, char const*, char const*, int, char const (&) [16])
 .text._ZN2bn12link_manager4initEv
                0x0000000008008048        0xc bn_link_manager.o
                0x0000000008008048                bn::link_manager::init()
 .text._ZN2bn12link_manager6activeEv
                0x0000000008008054        0xc bn_link_manager.o
                0x0000000008008054                bn::link_manager::active()
 .text._ZN2bn12link_manager7disableEv
                0x0000000008008060       0x18 bn_link_manager.o
                0x0000000008008060                bn::link_manager::disable()
 .text._ZN2bn3logERKNS_12istring_baseE
                0x0000000008008078        0xc bn_log.o
                0x0000000008008078                bn::log(bn::istring_base const&)
 .text._ZN2bn14memory_manager4initEv
                0x0000000008008084       0x20 bn_memory_manager.o
                0x0000000008008084                bn::memory_manager::init()
 .text._ZN3_bn6assert9show_argsIA35_cjEEvPKcS4_S4_iRKT_RKT0_
                0x00000000080080a4       0x58 bn_memory_manager.o
                0x00000000080080a4                void _bn::assert::show_args<char [35], unsigned int>(char const*, char const*, char const*, int, char const (&) [35], unsigned int const&)
 .text._Znwj    0x00000000080080fc       0x40 bn_memory_manager.o
                0x00000000080080fc                operator new(unsigned int)
 .text.exit._GLOBAL__sub_D__Znwj
                0x000000000800813c       0x14 bn_memory_manager.o
 .text._ZN2bn2hw8palettes9grayscaleEPKNS_5colorEiiPS2_.part.0
                0x0000000008008150       0x40 bn_palettes_manager.o
 .text._ZN2bn14bg_palette_ptrC2ERKS0_
                0x0000000008008190       0x2c bn_palettes_manager.o
                0x0000000008008190                bn::bg_palette_ptr::bg_palette_ptr(bn::bg_palette_ptr const&)
                0x0000000008008190                bn::bg_palette_ptr::bg_palette_ptr(bn::bg_palette_ptr const&)
 .text._ZNK2bn14bg_palette_ptr3bppEv
                0x00000000080081bc       0x20 bn_palettes_manager.o
                0x00000000080081bc                bn::bg_palette_ptr::bpp() const
 .text._ZNK2bn18sprite_palette_ptr3bppEv
                0x00000000080081dc       0x1c bn_palettes_manager.o
                0x00000000080081dc                bn::sprite_palette_ptr::bpp() const
 .text._ZNK2bn13palettes_bank10log_statusEv
                0x00000000080081f8      0x188 bn_palettes_manager.o
                0x00000000080081f8                bn::palettes_bank::log_status() const
 .text._ZNK2bn13palettes_bank20retrieve_commit_dataEv
                0x0000000008008380       0x4c bn_palettes_manager.o
                0x0000000008008380                bn::palettes_bank::retrieve_commit_data() const
 .text._ZNK2bn13palettes_bank12_same_colorsERKNS_4spanIKNS_5colorEEEi
                0x00000000080083cc       0x50 bn_palettes_manager.o
                0x00000000080083cc                bn::palettes_bank::_same_colors(bn::span<bn::color const> const&, int) const
 .text._ZN2bn13palettes_bank10find_bpp_4ERKNS_4spanIKNS_5colorEEEt
                0x000000000800841c       0xdc bn_palettes_manager.o
                0x000000000800841c                bn::palettes_bank::find_bpp_4(bn::span<bn::color const> const&, unsigned short)
 .text._ZNK2bn13palettes_bank21_apply_global_effectsEiPNS_5colorE
                0x00000000080084f8      0x13c bn_palettes_manager.o
                0x00000000080084f8                bn::palettes_bank::_apply_global_effects(int, bn::color*) const
 .text._ZNK2bn13palettes_bank25fill_hblank_effect_colorsEPKNS_5colorEPt
                0x0000000008008634       0x30 bn_palettes_manager.o
                0x0000000008008634                bn::palettes_bank::fill_hblank_effect_colors(bn::color const*, unsigned short*) const
 .text._ZNK2bn13palettes_bank7palette13apply_effectsEiPNS_5colorE
                0x0000000008008664       0xbc bn_palettes_manager.o
                0x0000000008008664                bn::palettes_bank::palette::apply_effects(int, bn::color*) const
 .text._ZNK2bn13palettes_bank25fill_hblank_effect_colorsEiPKNS_5colorEPt
                0x0000000008008720       0x44 bn_palettes_manager.o
                0x0000000008008720                bn::palettes_bank::fill_hblank_effect_colors(int, bn::color const*, unsigned short*) const
 .text._ZN2bn13palettes_bank15_update_paletteEi
                0x0000000008008764       0x6c bn_palettes_manager.o
                0x0000000008008764                bn::palettes_bank::_update_palette(int)
 .text._ZN2bn13palettes_bank6updateEv
                0x00000000080087d0      0x124 bn_palettes_manager.o
                0x00000000080087d0                bn::palettes_bank::update()
 .text._ZN2bn13palettes_bankC2Ev
                0x00000000080088f4       0xcc bn_palettes_manager.o
                0x00000000080088f4                bn::palettes_bank::palettes_bank()
                0x00000000080088f4                bn::palettes_bank::palettes_bank()
 .text._ZN2bn16palettes_manager20sprite_palettes_bankEv
                0x00000000080089c0        0x8 bn_palettes_manager.o
                0x00000000080089c0                bn::palettes_manager::sprite_palettes_bank()
 .text._ZN2bn16palettes_manager16bg_palettes_bankEv
                0x00000000080089c8        0x8 bn_palettes_manager.o
                0x00000000080089c8                bn::palettes_manager::bg_palettes_bank()
 .text._ZN2bn16palettes_manager6updateEv
                0x00000000080089d0       0x20 bn_palettes_manager.o
                0x00000000080089d0                bn::palettes_manager::update()
 .text._ZN2bn16palettes_manager6commitEb
                0x00000000080089f0       0xf4 bn_palettes_manager.o
                0x00000000080089f0                bn::palettes_manager::commit(bool)
 .text._ZN2bn16palettes_manager4stopEv
                0x0000000008008ae4       0x20 bn_palettes_manager.o
                0x0000000008008ae4                bn::palettes_manager::stop()
 .text._ZN3_bn6assert9show_argsIA35_cEEvPKcS4_S4_iRKT_
                0x0000000008008b04       0x50 bn_palettes_manager.o
                0x0000000008008b04                void _bn::assert::show_args<char [35]>(char const*, char const*, char const*, int, char const (&) [35])
 .text._ZN2bn13palettes_bank11colors_hashERKNS_4spanIKNS_5colorEEE
                0x0000000008008b54       0x50 bn_palettes_manager.o
                0x0000000008008b54                bn::palettes_bank::colors_hash(bn::span<bn::color const> const&)
 .text._ZN3_bn6assert9show_argsIJA43_ciA36_cA42_cEEEvPKcS6_S6_iDpRKT_
                0x0000000008008ba4       0x68 bn_palettes_manager.o
                0x0000000008008ba4                void _bn::assert::show_args<char [43], int, char [36], char [42]>(char const*, char const*, char const*, int, char const (&) [43], int const&, char const (&) [36], char const (&) [42])
 .text._ZN2bn13palettes_bank12create_bpp_8ERKNS_4spanIKNS_5colorEEENS_16compression_typeEb
                0x0000000008008c0c      0x22c bn_palettes_manager.o
                0x0000000008008c0c                bn::palettes_bank::create_bpp_8(bn::span<bn::color const> const&, bn::compression_type, bool)
 .text._ZNK2bn19sprite_palette_item10decompressENS_4spanINS_5colorEEE
                0x0000000008008e38      0x170 bn_palettes_manager.o
                0x0000000008008e38                bn::sprite_palette_item::decompress(bn::span<bn::color>) const
 .text._ZN2bn13palettes_bank12create_bpp_4ERKNS_4spanIKNS_5colorEEEtb
                0x0000000008008fa8      0x2a0 bn_palettes_manager.o
                0x0000000008008fa8                bn::palettes_bank::create_bpp_4(bn::span<bn::color const> const&, unsigned short, bool)
 .text._ZN2bn12_GLOBAL__N_112_create_implERKNS_19sprite_palette_itemEb
                0x0000000008009248       0x7c bn_palettes_manager.o
 .text._ZNK2bn19sprite_palette_item14create_paletteEv
                0x00000000080092c4       0x48 bn_palettes_manager.o
                0x00000000080092c4                bn::sprite_palette_item::create_palette() const
 .text._ZN2bn14iunordered_mapItsNS_13palettes_bank15identity_hasherENS_8equal_toItEEE5eraseERKNS5_14const_iteratorE.isra.0
                0x000000000800930c      0x174 bn_palettes_manager.o
 .text._ZN2bn13palettes_bank15decrease_usagesEi.part.0
                0x0000000008009480       0xdc bn_palettes_manager.o
 .text._ZN2bn14bg_palette_ptrD2Ev
                0x000000000800955c       0x3c bn_palettes_manager.o
                0x000000000800955c                bn::bg_palette_ptr::~bg_palette_ptr()
                0x000000000800955c                bn::bg_palette_ptr::~bg_palette_ptr()
 .text._ZN2bn18sprite_palette_ptrD2Ev
                0x0000000008009598       0x30 bn_palettes_manager.o
                0x0000000008009598                bn::sprite_palette_ptr::~sprite_palette_ptr()
                0x0000000008009598                bn::sprite_palette_ptr::~sprite_palette_ptr()
 .text._ZN2bn14bg_palette_ptraSERKS0_
                0x00000000080095c8       0x5c bn_palettes_manager.o
                0x00000000080095c8                bn::bg_palette_ptr::operator=(bn::bg_palette_ptr const&)
 .text.startup._GLOBAL__sub_I__ZN2bn11bg_palettes17used_colors_countEv
                0x0000000008009624       0x20 bn_palettes_manager.o
 .text._ZNK2bn21sprite_affine_mat_ptr15horizontal_flipEv
                0x0000000008009644       0x18 bn_sprite_affine_mats_manager.o
                0x0000000008009644                bn::sprite_affine_mat_ptr::horizontal_flip() const
 .text._ZN2bn21sprite_affine_mat_ptr19set_horizontal_flipEb
                0x000000000800965c       0x90 bn_sprite_affine_mats_manager.o
                0x000000000800965c                bn::sprite_affine_mat_ptr::set_horizontal_flip(bool)
 .text._ZNK2bn21sprite_affine_mat_ptr13vertical_flipEv
                0x00000000080096ec       0x18 bn_sprite_affine_mats_manager.o
                0x00000000080096ec                bn::sprite_affine_mat_ptr::vertical_flip() const
 .text._ZN2bn26sprite_affine_mats_manager20retrieve_commit_dataEv
                0x0000000008009704       0x38 bn_sprite_affine_mats_manager.o
                0x0000000008009704                bn::sprite_affine_mats_manager::retrieve_commit_data()
 .text._ZN3_bn6assert9show_argsIA37_cEEvPKcS4_S4_iRKT_
                0x000000000800973c       0x50 bn_sprite_affine_mats_manager.o
                0x000000000800973c                void _bn::assert::show_args<char [37]>(char const*, char const*, char const*, int, char const (&) [37])
 .text._ZN2bn26sprite_affine_mats_manager15decrease_usagesEi.part.0
                0x000000000800978c       0x68 bn_sprite_affine_mats_manager.o
 .text._ZN2bn21sprite_affine_mat_ptrD2Ev
                0x00000000080097f4       0x34 bn_sprite_affine_mats_manager.o
                0x00000000080097f4                bn::sprite_affine_mat_ptr::~sprite_affine_mat_ptr()
                0x00000000080097f4                bn::sprite_affine_mat_ptr::~sprite_affine_mat_ptr()
 .text._ZN2bn26sprite_affine_mats_manager6updateEv
                0x0000000008009828       0xa0 bn_sprite_affine_mats_manager.o
                0x0000000008009828                bn::sprite_affine_mats_manager::update()
 .text._ZN2bn26sprite_affine_mats_manager4initEPv
                0x00000000080098c8       0x6c bn_sprite_affine_mats_manager.o
                0x00000000080098c8                bn::sprite_affine_mats_manager::init(void*)
 .text._ZN2bn26sprite_affine_mats_manager14dettach_spriteEiRNS_24intrusive_list_node_typeE
                0x0000000008009934       0x4c bn_sprite_affine_mats_manager.o
                0x0000000008009934                bn::sprite_affine_mats_manager::dettach_sprite(int, bn::intrusive_list_node_type&)
 .text.startup._GLOBAL__sub_I__ZN2bn18sprite_affine_mats10used_countEv
                0x0000000008009980       0x98 bn_sprite_affine_mats_manager.o
 .text.exit._GLOBAL__sub_D__ZN2bn18sprite_affine_mats10used_countEv
                0x0000000008009a18       0x3c bn_sprite_affine_mats_manager.o
 .text._ZN2bn15sprites_manager12_GLOBAL__N_125_update_indexes_to_commitERKNS_20sprites_manager_itemE
                0x0000000008009a54       0x48 bn_sprites_manager.o
 .text._ZN2bn13ostringstream11append_argsIiJA4_ciEEEvRKT_DpRKT0_.isra.0
                0x0000000008009a9c       0x24 bn_sprites_manager.o
 .text._ZN2bn15sprites_manager12_GLOBAL__N_123_update_item_dimensionsERNS_20sprites_manager_itemE
                0x0000000008009ac0       0xcc bn_sprites_manager.o
 .text._ZN2bn10sprite_ptrC2ERKS0_
                0x0000000008009b8c        0xc bn_sprites_manager.o
                0x0000000008009b8c                bn::sprite_ptr::sprite_ptr(bn::sprite_ptr const&)
                0x0000000008009b8c                bn::sprite_ptr::sprite_ptr(bn::sprite_ptr const&)
 .text._ZNK2bn10sprite_ptr8positionEv
                0x0000000008009b98        0x8 bn_sprites_manager.o
                0x0000000008009b98                bn::sprite_ptr::position() const
 .text._ZN2bn10sprite_ptr12set_positionERKNS_11fixed_pointE
                0x0000000008009ba0       0x74 bn_sprites_manager.o
                0x0000000008009ba0                bn::sprite_ptr::set_position(bn::fixed_point const&)
 .text._ZNK2bn10sprite_ptr15horizontal_flipEv
                0x0000000008009c14       0x20 bn_sprites_manager.o
                0x0000000008009c14                bn::sprite_ptr::horizontal_flip() const
 .text._ZN2bn10sprite_ptr19set_horizontal_flipEb
                0x0000000008009c34       0x40 bn_sprites_manager.o
                0x0000000008009c34                bn::sprite_ptr::set_horizontal_flip(bool)
 .text._ZN2bn15sprites_manager4initEv
                0x0000000008009c74       0x34 bn_sprites_manager.o
                0x0000000008009c74                bn::sprites_manager::init()
 .text._ZN2bn15sprites_manager5hw_idEPv
                0x0000000008009ca8        0x8 bn_sprites_manager.o
                0x0000000008009ca8                bn::sprites_manager::hw_id(void*)
 .text._ZN2bn15sprites_manager5shapeEPv
                0x0000000008009cb0        0x8 bn_sprites_manager.o
                0x0000000008009cb0                bn::sprites_manager::shape(void*)
 .text._ZN2bn15sprites_manager4sizeEPv
                0x0000000008009cb8        0x8 bn_sprites_manager.o
                0x0000000008009cb8                bn::sprites_manager::size(void*)
 .text._ZN2bn15sprites_manager10shape_sizeEPv
                0x0000000008009cc0       0x14 bn_sprites_manager.o
                0x0000000008009cc0                bn::sprites_manager::shape_size(void*)
 .text._ZN2bn15sprites_manager11hw_positionEPv
                0x0000000008009cd4        0x4 bn_sprites_manager.o
                0x0000000008009cd4                bn::sprites_manager::hw_position(void*)
 .text._ZN2bn15sprites_manager9view_modeEPv
                0x0000000008009cd8        0xc bn_sprites_manager.o
                0x0000000008009cd8                bn::sprites_manager::view_mode(void*)
 .text._ZN2bn15sprites_manager10set_cameraEPvONS_10camera_ptrE
                0x0000000008009ce4       0xa4 bn_sprites_manager.o
                0x0000000008009ce4                bn::sprites_manager::set_camera(void*, bn::camera_ptr&&)
 .text._ZN2bn10sprite_ptr10set_cameraERKNS_10camera_ptrE
                0x0000000008009d88       0x24 bn_sprites_manager.o
                0x0000000008009d88                bn::sprite_ptr::set_camera(bn::camera_ptr const&)
 .text._ZN2bn15sprites_manager10affine_matEPv
                0x0000000008009dac        0x4 bn_sprites_manager.o
                0x0000000008009dac                bn::sprites_manager::affine_mat(void*)
 .text._ZN2bn15sprites_manager39fill_hblank_effect_horizontal_positionsEPviPKNS_7fixed_tILi12EEEPt
                0x0000000008009db0       0x44 bn_sprites_manager.o
                0x0000000008009db0                bn::sprites_manager::fill_hblank_effect_horizontal_positions(void*, int, bn::fixed_t<12> const*, unsigned short*)
 .text._ZN2bn15sprites_manager37fill_hblank_effect_vertical_positionsEPviPKNS_7fixed_tILi12EEEPt
                0x0000000008009df4       0x44 bn_sprites_manager.o
                0x0000000008009df4                bn::sprites_manager::fill_hblank_effect_vertical_positions(void*, int, bn::fixed_t<12> const*, unsigned short*)
 .text._ZN2bn15sprites_manager35fill_hblank_effect_first_attributesEiNS_12sprite_shapeENS_8bpp_modeEiPKNS_23sprite_first_attributesEPt
                0x0000000008009e38      0x108 bn_sprites_manager.o
                0x0000000008009e38                bn::sprites_manager::fill_hblank_effect_first_attributes(int, bn::sprite_shape, bn::bpp_mode, int, bn::sprite_first_attributes const*, unsigned short*)
 .text._ZN2bn15sprites_manager44fill_hblank_effect_regular_second_attributesEPviNS_11sprite_sizeEPKNS_32sprite_regular_second_attributesEPt
                0x0000000008009f40       0x60 bn_sprites_manager.o
                0x0000000008009f40                bn::sprites_manager::fill_hblank_effect_regular_second_attributes(void*, int, bn::sprite_size, bn::sprite_regular_second_attributes const*, unsigned short*)
 .text._ZN2bn15sprites_manager43fill_hblank_effect_affine_second_attributesEPviNS_11sprite_sizeEPKNS_31sprite_affine_second_attributesEPt
                0x0000000008009fa0       0x58 bn_sprites_manager.o
                0x0000000008009fa0                bn::sprites_manager::fill_hblank_effect_affine_second_attributes(void*, int, bn::sprite_size, bn::sprite_affine_second_attributes const*, unsigned short*)
 .text._ZN2bn15sprites_manager14update_camerasEv
                0x0000000008009ff8       0x2c bn_sprites_manager.o
                0x0000000008009ff8                bn::sprites_manager::update_cameras()
 .text._ZN2bn15sprites_manager6commitEb
                0x000000000800a024       0xa4 bn_sprites_manager.o
                0x000000000800a024                bn::sprites_manager::commit(bool)
 .text._ZN3_bn6assert9show_argsIA54_cEEvPKcS4_S4_iRKT_
                0x000000000800a0c8       0x50 bn_sprites_manager.o
                0x000000000800a0c8                void _bn::assert::show_args<char [54]>(char const*, char const*, char const*, int, char const (&) [54])
 .text._ZNK2bn17sprite_shape_size11tiles_countENS_8bpp_modeE
                0x000000000800a118      0x150 bn_sprites_manager.o
                0x000000000800a118                bn::sprite_shape_size::tiles_count(bn::bpp_mode) const
 .text._ZN2bn15sprites_manager12_GLOBAL__N_118_remove_affine_matERNS_20sprites_manager_itemE
                0x000000000800a268       0xd4 bn_sprites_manager.o
 .text._ZN2bn15sprites_manager40remove_identity_affine_mat_if_not_neededEPv
                0x000000000800a33c       0x18 bn_sprites_manager.o
                0x000000000800a33c                bn::sprites_manager::remove_identity_affine_mat_if_not_needed(void*)
 .text._ZN2bn15sprites_manager7paletteEPv
                0x000000000800a354       0x34 bn_sprites_manager.o
                0x000000000800a354                bn::sprites_manager::palette(void*)
 .text._ZN2bn15sprites_manager9set_tilesEPvONS_16sprite_tiles_ptrE
                0x000000000800a388      0x120 bn_sprites_manager.o
                0x000000000800a388                bn::sprites_manager::set_tiles(void*, bn::sprite_tiles_ptr&&)
 .text._ZN2bn10sprite_ptr9set_tilesEONS_16sprite_tiles_ptrE
                0x000000000800a4a8       0x10 bn_sprites_manager.o
                0x000000000800a4a8                bn::sprite_ptr::set_tiles(bn::sprite_tiles_ptr&&)
 .text._ZN2bn10sprite_ptr9set_tilesERKNS_17sprite_tiles_itemEi
                0x000000000800a4b8       0x80 bn_sprites_manager.o
                0x000000000800a4b8                bn::sprite_ptr::set_tiles(bn::sprite_tiles_item const&, int)
 .text._ZN2bn15sprites_manager6updateEv
                0x000000000800a538      0x17c bn_sprites_manager.o
                0x000000000800a538                bn::sprites_manager::update()
 .text._ZN3_bn6assert9show_argsIJA27_ciA4_ciEEEvPKcS5_S5_iDpRKT_
                0x000000000800a6b4       0x5c bn_sprites_manager.o
                0x000000000800a6b4                void _bn::assert::show_args<char [27], int, char [4], int>(char const*, char const*, char const*, int, char const (&) [27], int const&, char const (&) [4], int const&)
 .text._ZN2bn15sprites_manager35fill_hblank_effect_third_attributesENS_17sprite_shape_sizeEPKNS_23sprite_third_attributesEPt
                0x000000000800a710       0xb4 bn_sprites_manager.o
                0x000000000800a710                bn::sprites_manager::fill_hblank_effect_third_attributes(bn::sprite_shape_size, bn::sprite_third_attributes const*, unsigned short*)
 .text._ZN2bn14sorted_sprites6sorter6insertERNS_20sprites_manager_itemE
                0x000000000800a7c4      0x170 bn_sprites_manager.o
                0x000000000800a7c4                bn::sorted_sprites::sorter::insert(bn::sprites_manager_item&)
 .text._ZN2bn15sprites_manager6createERKNS_11fixed_pointERKNS_17sprite_shape_sizeEONS_16sprite_tiles_ptrEONS_18sprite_palette_ptrE
                0x000000000800a934      0x1e4 bn_sprites_manager.o
                0x000000000800a934                bn::sprites_manager::create(bn::fixed_point const&, bn::sprite_shape_size const&, bn::sprite_tiles_ptr&&, bn::sprite_palette_ptr&&)
 .text._ZNK2bn11sprite_item13create_spriteENS_7fixed_tILi12EEES2_
                0x000000000800ab18       0x44 bn_sprites_manager.o
                0x000000000800ab18                bn::sprite_item::create_sprite(bn::fixed_t<12>, bn::fixed_t<12>) const
 .text._ZN2bn15sprites_manager15decrease_usagesEPv
                0x000000000800ab5c      0x180 bn_sprites_manager.o
                0x000000000800ab5c                bn::sprites_manager::decrease_usages(void*)
 .text._ZN2bn10sprite_ptrD2Ev
                0x000000000800acdc       0x18 bn_sprites_manager.o
                0x000000000800acdc                bn::sprite_ptr::~sprite_ptr()
                0x000000000800acdc                bn::sprite_ptr::~sprite_ptr()
 .text.startup._GLOBAL__sub_I__ZN2bn7sprites16used_items_countEv
                0x000000000800acf4       0x9c bn_sprites_manager.o
 .text.exit._GLOBAL__sub_D__ZN2bn7sprites16used_items_countEv
                0x000000000800ad90       0x4c bn_sprites_manager.o
 .text._ZN3_bn6assert9show_argsIJA25_ciA4_ctEEEvPKcS5_S5_iDpRKT_
                0x000000000800addc       0x6c bn_sprite_text_generator.o
                0x000000000800addc                void _bn::assert::show_args<char [25], int, char [4], unsigned short>(char const*, char const*, char const*, int, char const (&) [25], int const&, char const (&) [4], unsigned short const&)
 .text._ZNK2bn16sprite_tiles_ptr2idEv
                0x000000000800ae48       0x18 bn_sprite_tiles_manager.o
                0x000000000800ae48                bn::sprite_tiles_ptr::id() const
 .text._ZNK2bn16sprite_tiles_ptr11tiles_countEv
                0x000000000800ae60       0x18 bn_sprite_tiles_manager.o
                0x000000000800ae60                bn::sprite_tiles_ptr::tiles_count() const
 .text._ZN2bn20sprite_tiles_manager10log_statusEv
                0x000000000800ae78      0x1ec bn_sprite_tiles_manager.o
                0x000000000800ae78                bn::sprite_tiles_manager::log_status()
 .text._ZN2bn20sprite_tiles_manager19commit_uncompressedEb
                0x000000000800b064       0xdc bn_sprite_tiles_manager.o
                0x000000000800b064                bn::sprite_tiles_manager::commit_uncompressed(bool)
 .text._ZN2bn20sprite_tiles_manager17commit_compressedEv
                0x000000000800b140       0xe4 bn_sprite_tiles_manager.o
                0x000000000800b140                bn::sprite_tiles_manager::commit_compressed()
 .text._ZN3_bn6assert9show_argsIJA44_cPKN2bn4tileEA4_cS6_EEEvPKcS9_S9_iDpRKT_
                0x000000000800b224       0x6c bn_sprite_tiles_manager.o
                0x000000000800b224                void _bn::assert::show_args<char [44], bn::tile const*, char [4], bn::tile const*>(char const*, char const*, char const*, int, char const (&) [44], bn::tile const* const&, char const (&) [4], bn::tile const* const&)
 .text._ZN3_bn6assert9show_argsIJA46_ciA4_cjEEEvPKcS5_S5_iDpRKT_
                0x000000000800b290       0x6c bn_sprite_tiles_manager.o
                0x000000000800b290                void _bn::assert::show_args<char [46], int, char [4], unsigned int>(char const*, char const*, char const*, int, char const (&) [46], int const&, char const (&) [4], unsigned int const&)
 .text._ZN3_bn6assert9show_argsIJA28_cA15_cPKN2bn4tileEA16_ciA34_cNS4_11string_viewEEEEvPKcSC_SC_iDpRKT_
                0x000000000800b2fc       0x84 bn_sprite_tiles_manager.o
                0x000000000800b2fc                void _bn::assert::show_args<char [28], char [15], bn::tile const*, char [16], int, char [34], bn::string_view>(char const*, char const*, char const*, int, char const (&) [28], char const (&) [15], bn::tile const* const&, char const (&) [16], int const&, char const (&) [34], bn::string_view const&)
 .text._ZN3_bn6assert9show_argsIA53_cEEvPKcS4_S4_iRKT_
                0x000000000800b380       0x50 bn_sprite_tiles_manager.o
                0x000000000800b380                void _bn::assert::show_args<char [53]>(char const*, char const*, char const*, int, char const (&) [53])
 .text._ZN3_bn6assert9show_argsIJA32_cA15_cPKN2bn4tileEA16_ciA34_cNS4_11string_viewEEEEvPKcSC_SC_iDpRKT_
                0x000000000800b3d0       0x84 bn_sprite_tiles_manager.o
                0x000000000800b3d0                void _bn::assert::show_args<char [32], char [15], bn::tile const*, char [16], int, char [34], bn::string_view>(char const*, char const*, char const*, int, char const (&) [32], char const (&) [15], bn::tile const* const&, char const (&) [16], int const&, char const (&) [34], bn::string_view const&)
 .text._ZN2bn20sprite_tiles_manager4initEv
                0x000000000800b454       0xf4 bn_sprite_tiles_manager.o
                0x000000000800b454                bn::sprite_tiles_manager::init()
 .text._ZN2bn20sprite_tiles_manager12_GLOBAL__N_122_insert_to_commit_itemEiRNS1_9item_typeE.part.0
                0x000000000800b548       0x6c bn_sprite_tiles_manager.o
 .text._ZN2bn20sprite_tiles_manager12_GLOBAL__N_117_insert_free_itemEiPt
                0x000000000800b5b4       0xcc bn_sprite_tiles_manager.o
 .text._ZN2bn20sprite_tiles_manager12_GLOBAL__N_116_erase_free_itemEi
                0x000000000800b680       0xe4 bn_sprite_tiles_manager.o
 .text._ZN2bn20sprite_tiles_manager12_GLOBAL__N_121_erase_to_commit_itemEiRNS1_9item_typeE
                0x000000000800b764      0x100 bn_sprite_tiles_manager.o
 .text._ZN2bn20sprite_tiles_manager15decrease_usagesEi
                0x000000000800b864      0x13c bn_sprite_tiles_manager.o
                0x000000000800b864                bn::sprite_tiles_manager::decrease_usages(int)
 .text._ZN2bn16sprite_tiles_ptrD2Ev
                0x000000000800b9a0       0x18 bn_sprite_tiles_manager.o
                0x000000000800b9a0                bn::sprite_tiles_ptr::~sprite_tiles_ptr()
                0x000000000800b9a0                bn::sprite_tiles_ptr::~sprite_tiles_ptr()
 .text._ZN2bn14iunordered_mapIPKNS_4tileEiNS_4hashIS3_EENS_8equal_toIS3_EEE5eraseERKNS8_14const_iteratorE.isra.0
                0x000000000800b9b8      0x17c bn_sprite_tiles_manager.o
 .text._ZN2bn20sprite_tiles_manager12_GLOBAL__N_112_create_itemEiPKNS_4tileENS_16compression_typeEib
                0x000000000800bb34      0x2f0 bn_sprite_tiles_manager.o
 .text._ZN2bn20sprite_tiles_manager6updateEv
                0x000000000800be24      0x238 bn_sprite_tiles_manager.o
                0x000000000800be24                bn::sprite_tiles_manager::update()
 .text._ZN2bn20sprite_tiles_manager12_GLOBAL__N_112_create_implEPKNS_4tileENS_16compression_typeEi
                0x000000000800c05c      0x1f8 bn_sprite_tiles_manager.o
 .text._ZN2bn20sprite_tiles_manager10create_newERKNS_4spanIKNS_4tileEEENS_16compression_typeE
                0x000000000800c254      0x194 bn_sprite_tiles_manager.o
                0x000000000800c254                bn::sprite_tiles_manager::create_new(bn::span<bn::tile const> const&, bn::compression_type)
 .text._ZNK2bn17sprite_tiles_item16create_new_tilesEi
                0x000000000800c3e8       0xe4 bn_sprite_tiles_manager.o
                0x000000000800c3e8                bn::sprite_tiles_item::create_new_tiles(int) const
 .text._ZN2bn20sprite_tiles_manager12_GLOBAL__N_110_find_implEPKNS_4tileENS_16compression_typeEi
                0x000000000800c4cc      0x294 bn_sprite_tiles_manager.o
 .text._ZN2bn20sprite_tiles_manager6createERKNS_4spanIKNS_4tileEEENS_16compression_typeE
                0x000000000800c760      0x144 bn_sprite_tiles_manager.o
                0x000000000800c760                bn::sprite_tiles_manager::create(bn::span<bn::tile const> const&, bn::compression_type)
 .text._ZNK2bn17sprite_tiles_item12create_tilesEv
                0x000000000800c8a4       0x94 bn_sprite_tiles_manager.o
                0x000000000800c8a4                bn::sprite_tiles_item::create_tiles() const
 .text._ZNK2bn17sprite_tiles_item12create_tilesEi
                0x000000000800c938       0xe4 bn_sprite_tiles_manager.o
                0x000000000800c938                bn::sprite_tiles_item::create_tiles(int) const
 .text._ZNK2bn17sprite_tiles_item10find_tilesEi
                0x000000000800ca1c       0xf0 bn_sprite_tiles_manager.o
                0x000000000800ca1c                bn::sprite_tiles_item::find_tiles(int) const
 .text.startup._GLOBAL__sub_I__ZN2bn12sprite_tiles16used_tiles_countEv
                0x000000000800cb0c      0x11c bn_sprite_tiles_manager.o
 .text._ZN2bn13ostringstreamC2ERNS_12istring_baseE
                0x000000000800cc28        0x8 bn_sstream.o
                0x000000000800cc28                bn::ostringstream::ostringstream(bn::istring_base&)
                0x000000000800cc28                bn::ostringstream::ostringstream(bn::istring_base&)
 .text._ZN2bn13ostringstream6appendEPKc
                0x000000000800cc30       0x88 bn_sstream.o
                0x000000000800cc30                bn::ostringstream::append(char const*)
 .text._ZN2bn13ostringstream6appendEi
                0x000000000800ccb8       0x9c bn_sstream.o
                0x000000000800ccb8                bn::ostringstream::append(int)
 .text._ZN2bn13ostringstream6appendERKNS_11string_viewE
                0x000000000800cd54       0x94 bn_sstream.o
                0x000000000800cd54                bn::ostringstream::append(bn::string_view const&)
 .text._ZN2bn13ostringstream6appendEj
                0x000000000800cde8       0x9c bn_sstream.o
                0x000000000800cde8                bn::ostringstream::append(unsigned int)
 .text._ZN2bn13ostringstream6appendEPKv
                0x000000000800ce84       0xe8 bn_sstream.o
                0x000000000800ce84                bn::ostringstream::append(void const*)
 .text._ZN2bn13ostringstream6appendEc
                0x000000000800cf6c       0x44 bn_sstream.o
                0x000000000800cf6c                bn::ostringstream::append(char)
 .text._ZN2bn5timerC2Ev
                0x000000000800cfb0       0x18 bn_timer.o
                0x000000000800cfb0                bn::timer::timer()
                0x000000000800cfb0                bn::timer::timer()
 .text._ZNK2bn5timer13elapsed_ticksEv
                0x000000000800cfc8       0x38 bn_timer.o
                0x000000000800cfc8                bn::timer::elapsed_ticks() const
 .text._ZN2bn5timer7restartEv
                0x000000000800d000       0x18 bn_timer.o
                0x000000000800d000                bn::timer::restart()
 .text._ZN2bn2hw5audio12_GLOBAL__N_124_disabled_vblank_handlerEv
                0x000000000800d018       0x10 bn_hw_audio.bn_noflto.o
 .text._ZN2bn2hw5audio12_GLOBAL__N_17_commitEv
                0x000000000800d028       0x7c bn_hw_audio.bn_noflto.o
 .text._ZN2bn2hw5audio12_GLOBAL__N_123_enabled_vblank_handlerEv
                0x000000000800d0a4       0x24 bn_hw_audio.bn_noflto.o
 .text._ZN2bn2hw5audio4initEv
                0x000000000800d0c8       0x68 bn_hw_audio.bn_noflto.o
                0x000000000800d0c8                bn::hw::audio::init()
 .text._ZN2bn2hw5audio7disableEv
                0x000000000800d130       0x30 bn_hw_audio.bn_noflto.o
                0x000000000800d130                bn::hw::audio::disable()
 .text._ZN2bn2hw5audio13music_playingEv
                0x000000000800d160       0x10 bn_hw_audio.bn_noflto.o
                0x000000000800d160                bn::hw::audio::music_playing()
 .text._ZN2bn2hw5audio10play_musicEiib
                0x000000000800d170       0x2c bn_hw_audio.bn_noflto.o
                0x000000000800d170                bn::hw::audio::play_music(int, int, bool)
 .text._ZN2bn2hw5audio10stop_musicEv
                0x000000000800d19c        0xc bn_hw_audio.bn_noflto.o
                0x000000000800d19c                bn::hw::audio::stop_music()
 .text._ZN2bn2hw5audio11pause_musicEv
                0x000000000800d1a8        0xc bn_hw_audio.bn_noflto.o
                0x000000000800d1a8                bn::hw::audio::pause_music()
 .text._ZN2bn2hw5audio12resume_musicEv
                0x000000000800d1b4        0xc bn_hw_audio.bn_noflto.o
                0x000000000800d1b4                bn::hw::audio::resume_music()
 .text._ZN2bn2hw5audio14music_positionEv
                0x000000000800d1c0        0xc bn_hw_audio.bn_noflto.o
                0x000000000800d1c0                bn::hw::audio::music_position()
 .text._ZN2bn2hw5audio18set_music_positionEi
                0x000000000800d1cc        0xc bn_hw_audio.bn_noflto.o
                0x000000000800d1cc                bn::hw::audio::set_music_position(int)
 .text._ZN2bn2hw5audio16set_music_volumeEi
                0x000000000800d1d8        0xc bn_hw_audio.bn_noflto.o
                0x000000000800d1d8                bn::hw::audio::set_music_volume(int)
 .text._ZN2bn2hw5audio22disable_vblank_handlerEv
                0x000000000800d1e4       0x14 bn_hw_audio.bn_noflto.o
                0x000000000800d1e4                bn::hw::audio::disable_vblank_handler()
 .text._ZN2bn2hw5audio6updateEb
                0x000000000800d1f8       0x18 bn_hw_audio.bn_noflto.o
                0x000000000800d1f8                bn::hw::audio::update(bool)
 .text._ZN2bn2hw5audio6commitEv
                0x000000000800d210       0x20 bn_hw_audio.bn_noflto.o
                0x000000000800d210                bn::hw::audio::commit()
 .text._ZN2bn2hw5audio12_GLOBAL__N_119_add_sound_to_queueEit
                0x000000000800d230       0xa0 bn_hw_audio.bn_noflto.o
 .text._ZN2bn2hw5audio15stop_all_soundsEv
                0x000000000800d2d0       0x6c bn_hw_audio.bn_noflto.o
                0x000000000800d2d0                bn::hw::audio::stop_all_sounds()
 .text._ZN2bn2hw5audio12_GLOBAL__N_119_check_sounds_queueEv.part.0
                0x000000000800d33c       0x9c bn_hw_audio.bn_noflto.o
 .text._ZN2bn2hw5audio10play_soundEiiiii
                0x000000000800d3d8       0x44 bn_hw_audio.bn_noflto.o
                0x000000000800d3d8                bn::hw::audio::play_sound(int, int, int, int, int)
 .text._ZN2bn2hw5audio10play_soundEii
                0x000000000800d41c       0x30 bn_hw_audio.bn_noflto.o
                0x000000000800d41c                bn::hw::audio::play_sound(int, int)
 .text._ZN2bn2hw5audio19update_sounds_queueEv
                0x000000000800d44c       0x94 bn_hw_audio.bn_noflto.o
                0x000000000800d44c                bn::hw::audio::update_sounds_queue()
 .text.startup._GLOBAL__sub_I__ZN2bn2hw5audio4initEv
                0x000000000800d4e0       0x30 bn_hw_audio.bn_noflto.o
 .text.exit._GLOBAL__sub_D__ZN2bn2hw5audio4initEv
                0x000000000800d510       0x74 bn_hw_audio.bn_noflto.o
 .text._ZN3_bn6assert9show_argsIA40_cEEvPKcS4_S4_iRKT_
                0x000000000800d584       0x50 bn_hw_common.bn_noflto.o
                0x000000000800d584                void _bn::assert::show_args<char [40]>(char const*, char const*, char const*, int, char const (&) [40])
 .text.__aeabi_idiv0
                0x000000000800d5d4       0x24 bn_hw_common.bn_noflto.o
                0x000000000800d5d4                __aeabi_idiv0
 .text._ZN2bn2hw8game_pak14_slow_game_pakEv
                0x000000000800d5f8       0x88 bn_hw_game_pak.bn_ewram.o
                0x000000000800d5f8                bn::hw::game_pak::_slow_game_pak()
 .text._ZN2bn2hw8game_pak4initEv
                0x000000000800d680       0x28 bn_hw_game_pak.o
                0x000000000800d680                bn::hw::game_pak::init()
 .text._ZN2bn2hw3irq4initEv
                0x000000000800d6a8        0xc bn_hw_irq.o
                0x000000000800d6a8                bn::hw::irq::init()
 .text._ZN2bn2hw3irq7set_isrENS1_2idEPFvvE
                0x000000000800d6b4       0x10 bn_hw_irq.o
                0x000000000800d6b4                bn::hw::irq::set_isr(bn::hw::irq::id, void (*)())
 .text._ZN2bn2hw3irq6enableENS1_2idE
                0x000000000800d6c4       0x10 bn_hw_irq.o
                0x000000000800d6c4                bn::hw::irq::enable(bn::hw::irq::id)
 .text._ZN2bn2hw3irq7disableENS1_2idE
                0x000000000800d6d4       0x10 bn_hw_irq.o
                0x000000000800d6d4                bn::hw::irq::disable(bn::hw::irq::id)
 .text._ZN2bn2hw4link12_GLOBAL__N_119_resetStateCallbackEv
                0x000000000800d6e4       0x4c bn_hw_link.o
 .text._ZN2bn2hw4link4initEv
                0x000000000800d730       0xc0 bn_hw_link.o
                0x000000000800d730                bn::hw::link::init()
 .text._ZN2bn2hw4link6activeEv
                0x000000000800d7f0       0x10 bn_hw_link.o
                0x000000000800d7f0                bn::hw::link::active()
 .text._ZN2bn2hw4link7disableEv
                0x000000000800d800       0x6c bn_hw_link.o
                0x000000000800d800                bn::hw::link::disable()
 .text._ZN2bn2hw4link6commitEv
                0x000000000800d86c       0x30 bn_hw_link.o
                0x000000000800d86c                bn::hw::link::commit()
 .text._ZN2bn2hw4link11_timer_intrEv
                0x000000000800d89c       0xf8 bn_hw_link.o
                0x000000000800d89c                bn::hw::link::_timer_intr()
 .text._ZN2bn2hw4link12_serial_intrEv
                0x000000000800d994      0x1bc bn_hw_link.o
                0x000000000800d994                bn::hw::link::_serial_intr()
 .text._ZN2bn2hw4link12_GLOBAL__N_117_sendDataCallbackEv
                0x000000000800db50       0xe0 bn_hw_link.o
 .text._ZN2bn2hw4link12_GLOBAL__N_124_receiveResponseCallbackERK12LinkResponse
                0x000000000800dc30      0x158 bn_hw_link.o
 .text.startup._GLOBAL__sub_I__ZN2bn2hw4link4initEv
                0x000000000800dd88       0x68 bn_hw_link.o
 .text._ZN2bn2hw3logERKNS_12istring_baseE
                0x000000000800ddf0       0x58 bn_hw_log.o
                0x000000000800ddf0                bn::hw::log(bn::istring_base const&)
 .text._ZN2bn2hw6memory4initEv
                0x000000000800de48        0x4 bn_hw_memory.o
                0x000000000800de48                bn::hw::memory::init()
 .text._ZN2bn2hw6memory16ewram_heap_startEv
                0x000000000800de4c        0x8 bn_hw_memory.o
                0x000000000800de4c                bn::hw::memory::ewram_heap_start()
 .text._ZN2bn2hw6memory14ewram_heap_endEv
                0x000000000800de54        0x8 bn_hw_memory.o
                0x000000000800de54                bn::hw::memory::ewram_heap_end()
 .text._ZN2bn2hw8palettes12_GLOBAL__N_110lut_effectEPKNS_5colorEPKhiPS3_
                0x000000000800de5c       0x40 bn_hw_palettes.o
 .text._ZN2bn2hw8palettes10brightnessEPKNS_5colorEiiPS2_
                0x000000000800de9c       0x54 bn_hw_palettes.o
                0x000000000800de9c                bn::hw::palettes::brightness(bn::color const*, int, int, bn::color*)
 .text._ZN2bn2hw8palettes8contrastEPKNS_5colorEiiPS2_
                0x000000000800def0       0x18 bn_hw_palettes.o
                0x000000000800def0                bn::hw::palettes::contrast(bn::color const*, int, int, bn::color*)
 .text._ZN2bn2hw8palettes9intensityEPKNS_5colorEiiPS2_
                0x000000000800df08       0x18 bn_hw_palettes.o
                0x000000000800df08                bn::hw::palettes::intensity(bn::color const*, int, int, bn::color*)
 .text._ZN2bn2hw8palettes9hue_shiftEPKNS_5colorEiiPS2_
                0x000000000800df20      0x154 bn_hw_palettes.o
                0x000000000800df20                bn::hw::palettes::hue_shift(bn::color const*, int, int, bn::color*)
 .text._ZN2bn2hw8palettes6rotateEPKNS_5colorEiiPS2_
                0x000000000800e074       0x2c bn_hw_palettes.o
                0x000000000800e074                bn::hw::palettes::rotate(bn::color const*, int, int, bn::color*)
 .text._ZN2bn2hw4show5errorERKNS_11system_fontERKNS_11string_viewES7_S7_iS7_S7_
                0x000000000800e0a0      0x318 bn_hw_show.o
                0x000000000800e0a0                bn::hw::show::error(bn::system_font const&, bn::string_view const&, bn::string_view const&, bn::string_view const&, int, bn::string_view const&, bn::string_view const&)
 .text._ZN2bn2hw4sram4initEv
                0x000000000800e3b8       0x18 bn_hw_sram.o
                0x000000000800e3b8                bn::hw::sram::init()
 .text._ZN2bn11system_fontC2Ev
                0x000000000800e3d0       0x18 bn_hw_system_font.o
                0x000000000800e3d0                bn::system_font::system_font()
                0x000000000800e3d0                bn::system_font::system_font()
 .text._ZNK2bn11system_font8tte_fontEv
                0x000000000800e3e8        0x4 bn_hw_system_font.o
                0x000000000800e3e8                bn::system_font::tte_font() const
 .text._ZN2bn2hw4text5parseEiRNS_5arrayIcLi32EEE
                0x000000000800e3ec       0xbc bn_hw_text.o
                0x000000000800e3ec                bn::hw::text::parse(int, bn::array<char, 32>&)
 .text._ZN2bn2hw4text5parseEjRNS_5arrayIcLi32EEE
                0x000000000800e4a8       0xa0 bn_hw_text.o
                0x000000000800e4a8                bn::hw::text::parse(unsigned int, bn::array<char, 32>&)
 .text._ZN2bn2hw4text5parseEPKvRNS_5arrayIcLi32EEE
                0x000000000800e548       0x30 bn_hw_text.o
                0x000000000800e548                bn::hw::text::parse(void const*, bn::array<char, 32>&)
 .text.clr_grayscale
                0x000000000800e578       0x78 tonc_color.o
                0x000000000800e578                clr_grayscale
 .text.sbmp16_rect
                0x000000000800e5f0       0x64 tonc_sbmp16.o
                0x000000000800e5f0                sbmp16_rect
 .text.bmp16_drawg_b1cts
                0x000000000800e654       0xb0 bmp16_drawg_b1cs.o
                0x000000000800e654                bmp16_drawg_b1cts
 .text.bmp16_erase
                0x000000000800e704       0x24 tte_init_bmp.o
                0x000000000800e704                bmp16_erase
 .text.tte_init_bmp
                0x000000000800e728       0x60 tte_init_bmp.o
                0x000000000800e728                tte_init_bmp
 .text.dummy_drawg
                0x000000000800e788        0x4 tte_main.o
                0x000000000800e788                dummy_drawg
 .text.dummy_erase
                0x000000000800e78c        0x4 tte_main.o
                0x000000000800e78c                dummy_erase
 .text.tte_init_base
                0x000000000800e790       0x68 tte_main.o
                0x000000000800e790                tte_init_base
 .text.utf8_decode_char
                0x000000000800e7f8       0xb4 tte_main.o
                0x000000000800e7f8                utf8_decode_char
 .text.tte_write
                0x000000000800e8ac       0xe8 tte_main.o
                0x000000000800e8ac                tte_write
 .text.tte_get_text_size
                0x000000000800e994       0xa4 tte_main.o
                0x000000000800e994                tte_get_text_size
 .text.tte_set_margins
                0x000000000800ea38       0x18 tte_main.o
                0x000000000800ea38                tte_set_margins
 .text.IRQ_Init
                0x000000000800ea50       0x48 interrupts_gba.o
                0x000000000800ea50                IRQ_Init
 .text.IRQ_SetHandler
                0x000000000800ea98       0x10 interrupts_gba.o
                0x000000000800ea98                IRQ_SetHandler
 .text.IRQ_Enable
                0x000000000800eaa8       0x64 interrupts_gba.o
                0x000000000800eaa8                IRQ_Enable
 .text.IRQ_Disable
                0x000000000800eb0c       0x60 interrupts_gba.o
                0x000000000800eb0c                IRQ_Disable
 .text.channel3_refresh_registers
                0x000000000800eb6c       0xd0 gbt_player.o
 .text.gbt_refresh_pattern_ptr
                0x000000000800ec3c       0x84 gbt_player.o
 .text.gbt_ch1234_nop
                0x000000000800ecc0        0x4 gbt_player.o
 .text.gbt_ch1234_speed
                0x000000000800ecc4       0x10 gbt_player.o
 .text.gbt_ch1234_jump_pattern
                0x000000000800ecd4       0x14 gbt_player.o
 .text.gbt_ch1234_jump_position
                0x000000000800ece8       0x1c gbt_player.o
 .text.gbt_ch1234_event
                0x000000000800ed04       0x24 gbt_player.o
 .text.gbt_ch1_pan
                0x000000000800ed28       0x10 gbt_player.o
 .text.gbt_ch1_cut_note
                0x000000000800ed38       0x10 gbt_player.o
 .text.gbt_ch1_arpeggio
                0x000000000800ed48       0x34 gbt_player.o
 .text.gbt_ch1_vibrato
                0x000000000800ed7c       0x20 gbt_player.o
 .text.gbt_ch1_volslide
                0x000000000800ed9c       0x10 gbt_player.o
 .text.gbt_ch2_pan
                0x000000000800edac       0x10 gbt_player.o
 .text.gbt_ch2_cut_note
                0x000000000800edbc       0x10 gbt_player.o
 .text.gbt_ch2_arpeggio
                0x000000000800edcc       0x34 gbt_player.o
 .text.gbt_ch2_vibrato
                0x000000000800ee00       0x20 gbt_player.o
 .text.gbt_ch2_volslide
                0x000000000800ee20       0x10 gbt_player.o
 .text.gbt_ch3_pan
                0x000000000800ee30       0x10 gbt_player.o
 .text.gbt_ch3_cut_note
                0x000000000800ee40       0x10 gbt_player.o
 .text.gbt_ch3_arpeggio
                0x000000000800ee50       0x34 gbt_player.o
 .text.gbt_ch3_vibrato
                0x000000000800ee84       0x20 gbt_player.o
 .text.gbt_ch4_pan
                0x000000000800eea4       0x14 gbt_player.o
 .text.gbt_ch4_cut_note
                0x000000000800eeb8       0x10 gbt_player.o
 .text.gbt_ch4_volslide
                0x000000000800eec8       0x10 gbt_player.o
 .text.gbt_update_refresh_panning
                0x000000000800eed8       0x50 gbt_player.o
 .text.gbt_run_startup_commands.part.0
                0x000000000800ef28       0xd0 gbt_player.o
 .text.gbt_update_effects_internal
                0x000000000800eff8      0x2cc gbt_player.o
 .text.gbt_play
                0x000000000800f2c4      0x1dc gbt_player.o
                0x000000000800f2c4                gbt_play
 .text.gbt_volume
                0x000000000800f4a0       0x68 gbt_player.o
                0x000000000800f4a0                gbt_volume
 .text.gbt_is_playing
                0x000000000800f508        0xc gbt_player.o
                0x000000000800f508                gbt_is_playing
 .text.gbt_pause
                0x000000000800f514       0x48 gbt_player.o
                0x000000000800f514                gbt_pause
 .text.gbt_loop
                0x000000000800f55c        0xc gbt_player.o
                0x000000000800f55c                gbt_loop
 .text.gbt_stop
                0x000000000800f568       0x24 gbt_player.o
                0x000000000800f568                gbt_stop
 .text.gbt_update
                0x000000000800f58c      0x678 gbt_player.o
                0x000000000800f58c                gbt_update
 .text.gbt_get_position
                0x000000000800fc04       0x4c gbt_player.o
                0x000000000800fc04                gbt_get_position
 .text.gbt_set_position
                0x000000000800fc50       0xe0 gbt_player.o
                0x000000000800fc50                gbt_set_position
 .text          0x000000000800fd30       0x8c tonc_bios.o
                0x000000000800fd30                SoftReset
                0x000000000800fd34                RegisterRamReset
                0x000000000800fd38                Halt
                0x000000000800fd3c                Stop
                0x000000000800fd40                IntrWait
                0x000000000800fd44                VBlankIntrWait
                0x000000000800fd48                Div
                0x000000000800fd4c                DivArm
                0x000000000800fd50                Sqrt
                0x000000000800fd54                ArcTan
                0x000000000800fd58                ArcTan2
                0x000000000800fd5c                CpuSet
                0x000000000800fd60                CpuFastSet
                0x000000000800fd64                BiosCheckSum
                0x000000000800fd68                BgAffineSet
                0x000000000800fd6c                ObjAffineSet
                0x000000000800fd70                BitUnPack
                0x000000000800fd74                LZ77UnCompWram
                0x000000000800fd78                LZ77UnCompVram
                0x000000000800fd7c                HuffUnComp
                0x000000000800fd80                RLUnCompWram
                0x000000000800fd84                RLUnCompVram
                0x000000000800fd88                Diff8bitUnFilterWram
                0x000000000800fd8c                Diff8bitUnFilterVram
                0x000000000800fd90                Diff16bitUnFilter
                0x000000000800fd94                SoundBias
                0x000000000800fd98                SoundDriverInit
                0x000000000800fd9c                SoundDriverMode
                0x000000000800fda0                SoundDriverMain
                0x000000000800fda4                SoundDriverVSync
                0x000000000800fda8                SoundChannelClear
                0x000000000800fdac                MidiKey2Freq
                0x000000000800fdb0                MultiBoot
                0x000000000800fdb4                SoundDriverVSyncOff
                0x000000000800fdb8                SoundDriverVSyncOn
 .text          0x000000000800fdbc       0x3c tonc_memset.o
                0x000000000800fdbc                memset16
 .text          0x000000000800fdf8      0x26c posprintf.o
                0x000000000800fdfc                posprintf
 .text          0x0000000008010064     0x1570 /opt/devkitpro/libgba/lib/libmm.a(mm_mas.o)
                0x00000000080100d8                mmStart
                0x00000000080100f8                mmJingle
                0x00000000080100fe                mmPlayModule
                0x00000000080101c8                mmPause
                0x00000000080101e4                mmResume
                0x00000000080101f4                mmActive
                0x00000000080101fa                mmActiveSub
                0x0000000008010200                mmSetModuleVolume
                0x0000000008010210                mmSetJingleVolume
                0x000000000801024c                mmGetPositionTick
                0x0000000008010252                mmGetPositionRow
                0x0000000008010258                mmGetPosition
                0x000000000801025e                mmPosition
                0x0000000008010278                mmSetModuleTempo
                0x00000000080102aa                mmSetModulePitch
                0x00000000080102ec                mmStop
                0x00000000080103b2                mppUpdateSub
                0x000000000801050e                mpp_Process_VolumeCommand
                0x0000000008010746                mpp_Process_Effect
                0x0000000008010e94                ST3_FREQTABLE
                0x00000000080112b4                IT_PitchTable
 .text          0x00000000080115d4       0x14 /opt/devkitpro/libgba/lib/libmm.a(mm_main.o)
                0x00000000080115d4                mpp_call_r7
                0x00000000080115d6                mpp_call_r1
                0x00000000080115d8                mpp_call_r2
                0x00000000080115da                mpp_call_r3
                0x00000000080115dc                mmSetEventHandler
 .text          0x00000000080115e8      0x314 /opt/devkitpro/libgba/lib/libmm.a(mm_effect.o)
                0x00000000080115e8                mmResetEffects
                0x0000000008011614                mmEffect
                0x000000000801162a                mmEffectEx
                0x000000000801172a                mmEffectActive
                0x000000000801175e                mmEffectVolume
                0x000000000801177a                mmEffectPanning
                0x000000000801178e                mmEffectRate
                0x00000000080117a2                mmEffectCancel
                0x00000000080117dc                mmEffectRelease
                0x0000000008011802                mmEffectScaleRate
                0x0000000008011816                mmSetEffectsVolume
                0x0000000008011824                mmEffectCancelAll
                0x0000000008011864                mmUpdateEffects
 .text          0x00000000080118fc      0x1e0 /opt/devkitpro/libgba/lib/libmm.a(mm_mixer_gba.o)
                0x00000000080118fc                mmMixerSetSource
                0x0000000008011910                mmMixerSetRead
                0x000000000801191e                mmMixerSetFreq
                0x000000000801192e                mmMixerMulFreq
                0x0000000008011942                mmMixerStopChannel
                0x0000000008011954                mmMixerChannelActive
                0x0000000008011966                mmMixerSetVolume
                0x0000000008011974                mmMixerSetPan
                0x0000000008011982                mmMixerInit
 .text          0x0000000008011adc      0x12c /opt/devkitpro/libgba/lib/libmm.a(mm_main_gba.o)
                0x0000000008011adc                mmInit
                0x0000000008011b30                mmSetVBlankHandler
                0x0000000008011b36                mmFrame
 .text          0x0000000008011c08       0x3c /opt/devkitpro/devkitARM/bin/../lib/gcc/arm-none-eabi/12.2.0/thumb/libgcc.a(_call_via_rX.o)
                0x0000000008011c08                _call_via_r0
                0x0000000008011c0c                _call_via_r1
                0x0000000008011c10                _call_via_r2
                0x0000000008011c14                _call_via_r3
                0x0000000008011c18                _call_via_r4
                0x0000000008011c1c                _call_via_r5
                0x0000000008011c20                _call_via_r6
                0x0000000008011c24                _call_via_r7
                0x0000000008011c28                _call_via_r8
                0x0000000008011c2c                _call_via_r9
                0x0000000008011c30                _call_via_sl
                0x0000000008011c34                _call_via_fp
                0x0000000008011c38                _call_via_ip
                0x0000000008011c3c                _call_via_sp
                0x0000000008011c40                _call_via_lr
 .text.__libc_init_array
                0x0000000008011c44       0x54 /opt/devkitpro/devkitARM/bin/../lib/gcc/arm-none-eabi/12.2.0/../../../../arm-none-eabi/lib/thumb/libg.a(lib_a-init.o)
                0x0000000008011c44                __libc_init_array
 .text.memcmp   0x0000000008011c98       0x48 /opt/devkitpro/devkitARM/bin/../lib/gcc/arm-none-eabi/12.2.0/../../../../arm-none-eabi/lib/thumb/libg.a(lib_a-memcmp.o)
                0x0000000008011c98                memcmp
 .text.memcmp.__stub
                0x0000000008011ce0       0xb4 linker stubs
 *(.gnu.linkonce.t.*)
 *(.text.*personality*)
 *(.gnu.warning)
 *(.glue_7t)
 .glue_7t       0x0000000008011dd0        0x0 linker stubs
 *(.glue_7)
 .glue_7        0x0000000008011dd0        0x0 linker stubs
 *(.vfp11_veneer)
 .vfp11_veneer  0x0000000008011dd0        0x0 linker stubs
                0x0000000008011dd0                . = ALIGN (0x4)
                0x0000000008011dd0                __text_end = .

.v4_bx          0x0000000008011dd0        0x0
 .v4_bx         0x0000000008011dd0        0x0 linker stubs

.iplt           0x0000000008011dd0        0x0
 .iplt          0x0000000008011dd0        0x0 /opt/devkitpro/devkitARM/bin/../lib/gcc/arm-none-eabi/12.2.0/../../../../arm-none-eabi/lib/thumb/gba_crt0.o

.fini           0x0000000008011dd0        0xc
 *(.fini)
 .fini          0x0000000008011dd0        0x4 /opt/devkitpro/devkitARM/bin/../lib/gcc/arm-none-eabi/12.2.0/thumb/crti.o
                0x0000000008011dd0                _fini
 .fini          0x0000000008011dd4        0x8 /opt/devkitpro/devkitARM/bin/../lib/gcc/arm-none-eabi/12.2.0/thumb/crtn.o
                0x0000000008011ddc                . = ALIGN (0x4)

.rodata         0x0000000008011ddc     0x4f14
 *(.rodata)
 .rodata        0x0000000008011ddc     0x1260 gooch_bn_gfx.o
                0x0000000008011ddc                gooch_bn_gfxTiles
                0x0000000008012fdc                gooch_bn_gfxPal
 .rodata        0x000000000801303c       0x10 bn_sprite_tiles_manager.o
 .rodata        0x000000000801304c       0x90 gbt_player.o
 .rodata        0x00000000080130dc      0xef8 verdana9.o
                0x00000000080130dc                verdana9Font
                0x00000000080130f4                verdana9Glyphs
                0x0000000008013ef4                verdana9Widths
 *all.rodata*(*)
 *(.roda)
 *(.rodata.*)
 .rodata._bn_audio_soundbank_bin
                0x0000000008013fd4        0xc _bn_audio_soundbank.bin.o
                0x0000000008013fd4                _bn_audio_soundbank_bin
                0x0000000008013fe0                _bn_audio_soundbank_bin_end
 .rodata._ZN2bn12sprite_items5goochE
                0x0000000008013fe0       0x1c main.o
                0x0000000008013fe0                bn::sprite_items::gooch
 .rodata._ZN2gm3NPCC2EN2bn10sprite_ptrENS1_5arrayINS1_11string_viewELi2EEES5_NS1_10camera_ptrE.str1.4
                0x0000000008013ffc       0x36 npc.o
 *fill*         0x0000000008014032        0x2 ff
 .rodata._ZN2gm6Player15GetRunAnimationENS_15PlayerDirectionE.str1.4
                0x0000000008014034       0x56 player.o
 *fill*         0x000000000801408a        0x2 ff
 .rodata._ZN2gm6Player13HandleWalkingENS_15PlayerDirectionEN2bn11fixed_pointE.str1.4
                0x000000000801408c       0x88 player.o
 .rodata._ZN2gm6Player14check_movementEv.str1.4
                0x0000000008014114       0x9c player.o
 .rodata._ZN2bn13audio_manager16execute_commandsEv.str1.4
                0x00000000080141b0       0x8a bn_audio_manager.o
 *fill*         0x000000000801423a        0x2 ff
 .rodata._ZN2bn13audio_manager16execute_commandsEv
                0x000000000801423c       0x3c bn_audio_manager.o
 .rodata._ZN2bn13audio_manager10play_musicENS_10music_itemENS_7fixed_tILi12EEEb.str1.4
                0x0000000008014278       0x5d bn_audio_manager.o
 *fill*         0x00000000080142d5        0x3 ff
 .rodata._ZN2bn13audio_manager15stop_all_soundsEv.str1.4
                0x00000000080142d8       0x10 bn_audio_manager.o
 .rodata._ZN2bn13audio_manager10stop_musicEv.str1.4
                0x00000000080142e8       0x39 bn_audio_manager.o
 *fill*         0x0000000008014321        0x3 ff
 .rodata._ZN2bn18best_fit_allocatorD2Ev.str1.4
                0x0000000008014324       0x4f bn_best_fit_allocator.o
 *fill*         0x0000000008014373        0x1 ff
 .rodata._ZN2bn18best_fit_allocator5allocEi.str1.4
                0x0000000008014374       0x24 bn_best_fit_allocator.o
 .rodata._ZN2bn18best_fit_allocator5resetEPvi.str1.4
                0x0000000008014398       0x89 bn_best_fit_allocator.o
 *fill*         0x0000000008014421        0x3 ff
 .rodata._ZN2bn17bg_blocks_manager17regular_map_tilesEi.str1.4
                0x0000000008014424        0xa bn_bg_blocks_manager.o
                                         0x3a (size before relaxing)
 *fill*         0x000000000801442e        0x2 ff
 .rodata._ZN2bn17bg_blocks_manager14palette_offsetEi.str1.4
                0x0000000008014430        0xb bn_bg_blocks_manager.o
 *fill*         0x000000000801443b        0x1 ff
 .rodata._ZN2bn14iunordered_mapIPKviNS_17bg_blocks_manager12_GLOBAL__N_115identity_hasherENS_8equal_toIS2_EEE5eraseERKNS8_14const_iteratorE.constprop.0.isra.0.str1.4
                0x000000000801443c       0x8a bn_bg_blocks_manager.o
 *fill*         0x00000000080144c6        0x2 ff
 .rodata._ZN2bn11bgs_manager13set_regular_xEPvNS_7fixed_tILi12EEE.str1.4
                0x00000000080144c8       0xc0 bn_bgs_manager.o
                                         0xc4 (size before relaxing)
 .rodata._ZN2bn11bgs_manager20set_regular_positionEPvRKNS_11fixed_pointE.str1.4
                0x0000000008014588       0xae bn_bgs_manager.o
 *fill*         0x0000000008014636        0x2 ff
 .rodata._ZN2bn11bgs_manager12_GLOBAL__N_19item_type18update_affine_hw_xEv.str1.4
                0x0000000008014638       0xc7 bn_bgs_manager.o
 *fill*         0x00000000080146ff        0x1 ff
 .rodata._ZN2bn11bgs_manager12_GLOBAL__N_19item_type18update_affine_hw_yEv.str1.4
                0x0000000008014700       0xc5 bn_bgs_manager.o
 *fill*         0x00000000080147c5        0x3 ff
 .rodata._ZN2bn11bgs_manager15rebuild_handlesEv.part.0.str1.4
                0x00000000080147c8       0x8b bn_bgs_manager.o
 .rodata._ZN2bn18regular_bg_builder11release_mapEv.str1.4
                0x0000000008014853       0x3a bn_bgs_manager.o
 *fill*         0x0000000008014853        0x1 ff
 .rodata._ZN2bn11bgs_manager37fill_hblank_effect_regular_attributesEPvPKNS_21regular_bg_attributesEPt.str1.4
                0x0000000008014854       0x74 bn_bgs_manager.o
                                         0x80 (size before relaxing)
 .rodata._ZN2bn11bgs_manager36fill_hblank_effect_affine_attributesEPvPKNS_20affine_bg_attributesEPt.str1.4
                0x00000000080148c8       0x25 bn_bgs_manager.o
 *fill*         0x00000000080148ed        0x3 ff
 .rodata._ZN2bn15cameras_manager6createERKNS_11fixed_pointE.str1.4
                0x00000000080148f0       0x56 bn_cameras_manager.o
 *fill*         0x0000000008014946        0x2 ff
 .rodata._GLOBAL__sub_I__ZN2bn4core4initEv.str1.4
                0x0000000008014948        0x7 bn_core.o
 *fill*         0x000000000801494f        0x1 ff
 .rodata._ZN2bn18igeneric_pool_baseD2Ev.str1.4
                0x0000000008014950       0x3a bn_generic_pool.o
                                         0x42 (size before relaxing)
 *fill*         0x000000000801498a        0x2 ff
 .rodata._ZN2bn18igeneric_pool_base9_allocateEv.str1.4
                0x000000000801498c       0x2d bn_generic_pool.o
 *fill*         0x00000000080149b9        0x3 ff
 .rodata._ZN2bn22hblank_effects_manager12_GLOBAL__N_110_is_uint32ENS0_12handler_typeE.str1.4
                0x00000000080149bc       0x3e bn_hblank_effects_manager.o
                                         0x42 (size before relaxing)
 *fill*         0x00000000080149fa        0x2 ff
 .rodata._ZN2bn22hblank_effects_manager12_GLOBAL__N_19item_type12check_updateEv.str1.4
                0x00000000080149fc      0x2b9 bn_hblank_effects_manager.o
                                        0x2c1 (size before relaxing)
 *fill*         0x0000000008014cb5        0x3 ff
 .rodata._ZN2bn22hblank_effects_manager12_GLOBAL__N_19item_type12check_updateEv
                0x0000000008014cb8       0xa4 bn_hblank_effects_manager.o
 .rodata._ZN2bn22hblank_effects_manager6updateEv.str1.4
                0x0000000008014d5c       0x5d bn_hblank_effects_manager.o
 *fill*         0x0000000008014db9        0x3 ff
 .rodata._ZN2bn22hblank_effects_manager4initEv.str1.4
                0x0000000008014dbc       0x27 bn_hblank_effects_manager.o
                                         0x33 (size before relaxing)
 *fill*         0x0000000008014de3        0x1 ff
 .rodata._ZN2bn14keypad_manager6updateEv.str1.4
                0x0000000008014de4       0x4b bn_keypad_manager.o
                                         0x5b (size before relaxing)
 *fill*         0x0000000008014e2f        0x1 ff
 .rodata._ZN2bn14keypad_manager4initERKNS_11string_viewE.str1.4
                0x0000000008014e30       0x54 bn_keypad_manager.o
 .rodata._Znwj.str1.4
                0x0000000008014e84       0x43 bn_memory_manager.o
                                         0x47 (size before relaxing)
 *fill*         0x0000000008014ec7        0x1 ff
 .rodata._ZNK2bn13palettes_bank10log_statusEv.str1.4
                0x0000000008014ec8       0x60 bn_palettes_manager.o
 .rodata._ZNK2bn13palettes_bank6colorsEi.str1.4
                0x0000000008014f28       0x33 bn_palettes_manager.o
 *fill*         0x0000000008014f5b        0x1 ff
 .rodata._ZN2bn13palettes_bank11colors_hashERKNS_4spanIKNS_5colorEEE.str1.4
                0x0000000008014f5c       0x53 bn_palettes_manager.o
 *fill*         0x0000000008014faf        0x1 ff
 .rodata._ZN2bn13palettes_bank12create_bpp_8ERKNS_4spanIKNS_5colorEEENS_16compression_typeEb.str1.4
                0x0000000008014fb0       0xc3 bn_palettes_manager.o
                                         0xc7 (size before relaxing)
 *fill*         0x0000000008015073        0x1 ff
 .rodata._ZN2bn13palettes_bank16set_rotate_countEii.str1.4
                0x0000000008015074       0x48 bn_palettes_manager.o
                                         0x4c (size before relaxing)
 .rodata._ZNK2bn15bg_palette_item10decompressENS_4spanINS_5colorEEE.str1.4
                0x00000000080150bc      0x113 bn_palettes_manager.o
 *fill*         0x00000000080151cf        0x1 ff
 .rodata._ZNK2bn19sprite_palette_item10decompressENS_4spanINS_5colorEEE.str1.4
                0x00000000080151d0       0x1d bn_palettes_manager.o
 *fill*         0x00000000080151ed        0x3 ff
 .rodata._ZN2bn13palettes_bank12create_bpp_4ERKNS_4spanIKNS_5colorEEEtb.str1.4
                0x00000000080151f0       0x73 bn_palettes_manager.o
                                         0xc7 (size before relaxing)
 .rodata._ZN2bn14iunordered_mapItsNS_13palettes_bank15identity_hasherENS_8equal_toItEEE5eraseERKNS5_14const_iteratorE.isra.0.str1.4
                0x0000000008015263       0x35 bn_palettes_manager.o
 *fill*         0x0000000008015263        0x1 ff
 .rodata._ZN2bn26sprite_affine_mats_manager12_GLOBAL__N_115_new_item_indexEv.str1.4
                0x0000000008015264       0x55 bn_sprite_affine_mats_manager.o
                                         0x71 (size before relaxing)
 .rodata._ZN2bn26sprite_affine_mats_manager15decrease_usagesEi.part.0.str1.4
                0x00000000080152b9       0x27 bn_sprite_affine_mats_manager.o
 *fill*         0x00000000080152b9        0x3 ff
 .rodata._ZN2bn26sprite_affine_mats_manager14dettach_spriteEiRNS_24intrusive_list_node_typeE.str1.4
                0x00000000080152bc       0x2e bn_sprite_affine_mats_manager.o
 *fill*         0x00000000080152ea        0x2 ff
 .rodata._ZN2bn15sprites_manager20set_blending_enabledEPvb.str1.4
                0x00000000080152ec       0x54 bn_sprites_manager.o
 .rodata._ZNK2bn17sprite_shape_size11tiles_countENS_8bpp_modeE.str1.4
                0x0000000008015340       0x30 bn_sprites_manager.o
                                         0x44 (size before relaxing)
 .rodata._ZN2bn15sprites_manager12_GLOBAL__N_118_remove_affine_matERNS_20sprites_manager_itemE.str1.4
                0x0000000008015370       0x3a bn_sprites_manager.o
 .rodata._ZN2bn20sprites_manager_item13_builder_initERKNS_14sprite_builderE.str1.4
                0x0000000008015370       0x47 bn_sprites_manager.o
                                         0x53 (size before relaxing)
 *fill*         0x00000000080153b7        0x1 ff
 .rodata._ZN2bn14sprite_builderC2ERKNS_17sprite_shape_sizeENS_16sprite_tiles_ptrENS_18sprite_palette_ptrE.str1.4
                0x00000000080153b8       0x6a bn_sprites_manager.o
                                         0x6e (size before relaxing)
 *fill*         0x0000000008015422        0x2 ff
 .rodata._ZN2bn15sprites_manager9set_tilesEPvRKNS_16sprite_tiles_ptrE.str1.4
                0x0000000008015424       0x65 bn_sprites_manager.o
 *fill*         0x0000000008015489        0x3 ff
 .rodata._ZN2bn15sprites_manager6updateEv.str1.4
                0x000000000801548c       0x4b bn_sprites_manager.o
 *fill*         0x00000000080154d7        0x1 ff
 .rodata._ZN2bn15sprites_manager35fill_hblank_effect_third_attributesENS_17sprite_shape_sizeEPKNS_23sprite_third_attributesEPt.str1.4
                0x00000000080154d8       0x93 bn_sprites_manager.o
 *fill*         0x000000000801556b        0x1 ff
 .rodata._ZN2bn14sorted_sprites6sorter6insertERNS_20sprites_manager_itemE.str1.4
                0x000000000801556c       0x59 bn_sprites_manager.o
 *fill*         0x00000000080155c5        0x3 ff
 .rodata._ZN2bn15sprites_manager15create_optionalEONS_14sprite_builderE.str1.4
                0x00000000080155c8       0x20 bn_sprites_manager.o
                                         0x35 (size before relaxing)
 .rodata._ZN2bn15sprites_manager6createEONS_14sprite_builderE.str1.4
                0x00000000080155e8       0x3b bn_sprites_manager.o
 .rodata._ZN2bn15sprites_manager9put_aboveEPv.str1.4
                0x0000000008015623       0x3b bn_sprites_manager.o
                                         0x36 (size before relaxing)
 *fill*         0x0000000008015623        0x1 ff
 .rodata._ZN2bn15sprites_manager15set_bg_priorityEPvi.str1.4
                0x0000000008015624       0x39 bn_sprites_manager.o
                                         0x41 (size before relaxing)
 *fill*         0x000000000801565d        0x3 ff
 .rodata._ZN2bn2hw7sprites12_GLOBAL__N_1L10_obj_sizesE
                0x0000000008015660       0x18 bn_sprites_manager.o
 .rodata._ZN2bn20sprite_tiles_manager10log_statusEv.str1.4
                0x0000000008015678       0x88 bn_sprite_tiles_manager.o
                                         0x94 (size before relaxing)
 .rodata._ZN2bn20sprite_tiles_manager4initEv.str1.4
                0x0000000008015700       0x33 bn_sprite_tiles_manager.o
 .rodata._ZN2bn20sprite_tiles_manager16reload_tiles_refEi.str1.4
                0x0000000008015700       0x4d bn_sprite_tiles_manager.o
 *fill*         0x000000000801574d        0x3 ff
 .rodata._ZN2bn20sprite_tiles_manager12_GLOBAL__N_117_insert_free_itemEiPt.str1.4
                0x0000000008015750       0x29 bn_sprite_tiles_manager.o
                                         0x45 (size before relaxing)
 .rodata._ZN2bn20sprite_tiles_manager12_GLOBAL__N_116_erase_free_itemEi.str1.4
                0x0000000008015779       0x48 bn_sprite_tiles_manager.o
 .rodata._ZN2bn14iunordered_mapIPKNS_4tileEiNS_4hashIS3_EENS_8equal_toIS3_EEE5eraseERKNS8_14const_iteratorE.isra.0.str1.4
                0x0000000008015779       0x82 bn_sprite_tiles_manager.o
 *fill*         0x0000000008015779        0x3 ff
 .rodata._ZN2bn20sprite_tiles_manager12_GLOBAL__N_112_create_itemEiPKNS_4tileENS_16compression_typeEib.str1.4
                0x000000000801577c       0x95 bn_sprite_tiles_manager.o
                                         0xb5 (size before relaxing)
 *fill*         0x0000000008015811        0x3 ff
 .rodata._ZN2bn20sprite_tiles_manager10create_newERKNS_4spanIKNS_4tileEEENS_16compression_typeE.str1.4
                0x0000000008015814       0xe0 bn_sprite_tiles_manager.o
 .rodata._ZNK2bn17sprite_tiles_item16create_new_tilesEv.str1.4
                0x00000000080158f4       0xa2 bn_sprite_tiles_manager.o
                                         0xf7 (size before relaxing)
 *fill*         0x0000000008015996        0x2 ff
 .rodata._ZNK2bn17sprite_tiles_item16create_new_tilesEi.str1.4
                0x0000000008015998       0x51 bn_sprite_tiles_manager.o
 *fill*         0x00000000080159e9        0x3 ff
 .rodata._ZN2bn20sprite_tiles_manager13set_tiles_refEiRKNS_4spanIKNS_4tileEEENS_16compression_typeE.str1.4
                0x00000000080159ec       0xb8 bn_sprite_tiles_manager.o
 .rodata._ZN2bn20sprite_tiles_manager12_GLOBAL__N_110_find_implEPKNS_4tileENS_16compression_typeEi.str1.4
                0x0000000008015aa4       0xd0 bn_sprite_tiles_manager.o
 .rodata._ZN2bn20sprite_tiles_manager6createERKNS_4spanIKNS_4tileEEENS_16compression_typeE.str1.4
                0x0000000008015b74       0x1c bn_sprite_tiles_manager.o
                                         0x24 (size before relaxing)
 .rodata.str1.4
                0x0000000008015b90       0x2e bn_sprite_tiles_manager.o
 *fill*         0x0000000008015bbe        0x2 ff
 .rodata._ZN2bn20sprite_tiles_manager12_GLOBAL__N_1L19_status_log_messageE
                0x0000000008015bc0        0x8 bn_sprite_tiles_manager.o
 .rodata._ZN3_bn6assert9show_argsIJA19_ciA4_ciEEEvPKcS5_S5_iDpRKT_.str1.4
                0x0000000008015bc8       0x7e bn_sstream.o
                                         0x96 (size before relaxing)
 *fill*         0x0000000008015c46        0x2 ff
 .rodata._ZN2bn13ostringstream6appendEPKv.str1.4
                0x0000000008015c48        0x8 bn_sstream.o
 .rodata._ZN2bn13ostringstream16_append_fractionEji.str1.4
                0x0000000008015c50        0xf bn_sstream.o
                                         0x27 (size before relaxing)
 *fill*         0x0000000008015c5f        0x1 ff
 .rodata._ZN2bn2hw5audio12_GLOBAL__N_119_add_sound_to_queueEit.str1.4
                0x0000000008015c60       0x31 bn_hw_audio.bn_noflto.o
                                         0x3d (size before relaxing)
 .rodata._ZN2bn2hw5audio15stop_all_soundsEv.str1.4
                0x0000000008015c91       0x45 bn_hw_audio.bn_noflto.o
 *fill*         0x0000000008015c91        0x3 ff
 .rodata._ZN2bn2hw5audio12_GLOBAL__N_119_check_sounds_queueEv.part.0.str1.4
                0x0000000008015c94        0xa bn_hw_audio.bn_noflto.o
                                         0x2e (size before relaxing)
 *fill*         0x0000000008015c9e        0x2 ff
 .rodata._ZN2bn2hw5audio19update_sounds_queueEv.str1.4
                0x0000000008015ca0        0xc bn_hw_audio.bn_noflto.o
 .rodata.__cxa_pure_virtual.str1.4
                0x0000000008015cac       0x4b bn_hw_common.bn_noflto.o
                                         0x4f (size before relaxing)
 *fill*         0x0000000008015cf7        0x1 ff
 .rodata.__aeabi_idiv0.str1.4
                0x0000000008015cf8       0x38 bn_hw_common.bn_noflto.o
 .rodata._ZN2bn2hw8game_pak12_GLOBAL__N_1L8rom_dataE
                0x0000000008015d30        0xc bn_hw_game_pak.bn_ewram.o
 .rodata._ZN2bn2hw4link4sendEi.str1.4
                0x0000000008015d3c       0x1b bn_hw_link.o
                                         0x2f (size before relaxing)
 *fill*         0x0000000008015d57        0x1 ff
 .rodata._ZN2bn2hw8palettes12_GLOBAL__N_1L13hue_shift_lutE
                0x0000000008015d58      0x4a4 bn_hw_palettes.o
 .rodata._ZN2bn2hw8palettes12_GLOBAL__N_1L13intensity_lutE
                0x00000000080161fc      0x420 bn_hw_palettes.o
 .rodata._ZN2bn2hw8palettes12_GLOBAL__N_1L12contrast_lutE
                0x000000000801661c      0x420 bn_hw_palettes.o
 .rodata._ZN2bn2hw4show5errorERKNS_11system_fontERKNS_11string_viewES7_S7_iS7_S7_.str1.4
                0x0000000008016a3c       0x54 bn_hw_show.o
                                         0xec (size before relaxing)
 .rodata._ZN2bn2hw4sram12_GLOBAL__N_1L9save_typeE
                0x0000000008016a90        0xa bn_hw_sram.o
 *fill*         0x0000000008016a9a        0x2 ff
 .rodata._ZN2bn2hw4text5parseEiRNS_5arrayIcLi32EEE.str1.4
                0x0000000008016a9c        0x7 bn_hw_text.o
 *fill*         0x0000000008016aa3        0x1 ff
 .rodata._ZN2bn2hw4text5parseEPKvRNS_5arrayIcLi32EEE.str1.4
                0x0000000008016aa4        0x5 bn_hw_text.o
 *fill*         0x0000000008016aa9        0x3 ff
 .rodata.m3_surface
                0x0000000008016aac       0x14 tonc_sbmp16.o
                0x0000000008016aac                m3_surface
 .rodata.srf.0  0x0000000008016ac0       0x14 tte_main.o
 .rodata.gbt_refresh_pattern_ptr.str1.4
                0x0000000008016ad4        0x9 gbt_player.o
 *fill*         0x0000000008016add        0x3 ff
 .rodata.gbt_ch4_jump_table
                0x0000000008016ae0       0x40 gbt_player.o
 .rodata.gbt_ch3_jump_table
                0x0000000008016b20       0x40 gbt_player.o
 .rodata.gbt_ch2_jump_table
                0x0000000008016b60       0x40 gbt_player.o
 .rodata.gbt_ch1_jump_table
                0x0000000008016ba0       0x40 gbt_player.o
 .rodata.vibrato_sine
                0x0000000008016be0       0x80 gbt_player.o
 .rodata.gbt_noise
                0x0000000008016c60       0x10 gbt_player.o
 .rodata.gbt_default_wave_7
                0x0000000008016c70       0x10 gbt_player.o
 .rodata.gbt_default_wave_6
                0x0000000008016c80       0x10 gbt_player.o
 .rodata.gbt_default_wave_5
                0x0000000008016c90       0x10 gbt_player.o
 .rodata.gbt_default_wave_4
                0x0000000008016ca0       0x10 gbt_player.o
 .rodata.gbt_default_wave_3
                0x0000000008016cb0       0x10 gbt_player.o
 .rodata.gbt_default_wave_2
                0x0000000008016cc0       0x10 gbt_player.o
 .rodata.gbt_default_wave_1
                0x0000000008016cd0       0x10 gbt_player.o
 .rodata.gbt_default_wave_0
                0x0000000008016ce0       0x10 gbt_player.o
 *(.gnu.linkonce.r*)
                0x0000000008016cf0                . = ALIGN (0x4)

.ARM.extab
 *(.ARM.extab* .gnu.linkonce.armextab.*)
                0x0000000008016cf0                __exidx_start = .

.ARM.exidx
 *(.ARM.exidx* .gnu.linkonce.armexidx.*)
                0x0000000008016cf0                __exidx_end = .

.ctors          0x0000000008016cf0        0x0
 *crtbegin.o(.ctors)
 *(EXCLUDE_FILE(*crtend.o) .ctors)
 *(SORT_BY_NAME(.ctors.*))
 *(.ctors)
                0x0000000008016cf0                . = ALIGN (0x4)

.dtors          0x0000000008016cf0        0x0
 *crtbegin.o(.dtors)
 *(EXCLUDE_FILE(*crtend.o) .dtors)
 *(SORT_BY_NAME(.dtors.*))
 *(.dtors)
                0x0000000008016cf0                . = ALIGN (0x4)

.eh_frame       0x0000000008016cf0        0x4
 *(.eh_frame)
 .eh_frame      0x0000000008016cf0        0x0 /opt/devkitpro/devkitARM/bin/../lib/gcc/arm-none-eabi/12.2.0/thumb/crtbegin.o
 .eh_frame      0x0000000008016cf0        0x4 /opt/devkitpro/devkitARM/bin/../lib/gcc/arm-none-eabi/12.2.0/thumb/crtend.o
                0x0000000008016cf4                . = ALIGN (0x4)

.gcc_except_table
                0x0000000008016cf4        0x0
 *(.gcc_except_table)
                0x0000000008016cf4                . = ALIGN (0x4)
                0x0000000008016cf4                __iwram_lma = .

.iwram          0x0000000003000000     0x21f0 load address 0x0000000008016cf4
                0x0000000003000000                __iwram_start__ = ABSOLUTE (.)
 *(.iwram .iwram*)
 .iwram         0x0000000003000000      0x2d4 bn_sprites_manager.bn_iwram.o
                0x0000000003000000                bn::sprites_manager::_check_items_on_screen_impl(void*, bn::intrusive_list<bn::sorted_sprites::layer>&, bool, int&, int&)
                0x0000000003000174                bn::sprites_manager::_rebuild_handles_impl(int, void*, bn::intrusive_list<bn::sorted_sprites::layer>&)
                0x00000000030001fc                bn::sprites_manager::_update_cameras_impl(bn::intrusive_list<bn::sorted_sprites::layer>&)
 .iwram         0x00000000030002d4       0x70 bn_hw_bg_blocks.bn_iwram.o
                0x00000000030002d4                bn::hw::bg_blocks::_commit_offset_half_words(unsigned short const*, unsigned int, unsigned short, unsigned short*)
                0x0000000003000300                bn::hw::bg_blocks::_commit_offset_words(unsigned int const*, unsigned int, unsigned int, unsigned int*)
 .iwram         0x0000000003000344       0xd0 bn_hw_hblank_effects.o
                0x0000000003000344                bn::hw::hblank_effects::_intr()
                0x0000000003000410                bn::hw::hblank_effects::data
 .iwram         0x0000000003000414       0x70 clr_blend_fast.o
                0x0000000003000414                clr_blend_fast
 .iwram         0x0000000003000484       0x70 clr_fade_fast.o
                0x0000000003000484                clr_fade_fast
 .iwram         0x00000000030004f4       0x4c tonc_memset.o
                0x00000000030004f4                memset32
 .iwram         0x0000000003000540      0x134 irq_handler.o
                0x0000000003000540                IRQ_GlobalInterruptHandler
 .iwram.__aeabi_memcpy
                0x0000000003000674       0xdc memcpy.o
                0x0000000003000674                __aeabi_memcpy
                0x00000000030006ac                __aeabi_memcpy4
                0x00000000030006ac                __aeabi_memcpy8
                0x0000000003000718                __agbabi_memcpy2
                0x000000000300073c                __agbabi_memcpy1
 .iwram.memcpy  0x0000000003000750       0x10 memcpy.o
                0x0000000003000750                memcpy
 .iwram.__aeabi_memmove
                0x0000000003000760       0x24 memmove.o
                0x0000000003000760                __aeabi_memmove
                0x000000000300076c                __aeabi_memmove8
                0x000000000300076c                __aeabi_memmove4
                0x0000000003000778                __agbabi_memmove1
 .iwram.memmove
                0x0000000003000784       0x10 memmove.o
                0x0000000003000784                memmove
 .iwram.__aeabi_memset
                0x0000000003000794       0x98 memset.o
                0x0000000003000794                __aeabi_memset
                0x00000000030007c0                __agbabi_wordset4
                0x00000000030007c4                __agbabi_lwordset4
 .iwram.memset  0x000000000300082c       0x1c memset.o
                0x000000000300082c                memset
 .iwram.__agbabi_rmemcpy
                0x0000000003000848       0xe0 rmemcpy.o
                0x0000000003000848                __agbabi_rmemcpy
                0x0000000003000914                __agbabi_rmemcpy1
 .iwram         0x0000000003000928       0x3c sdiv32.o
                0x0000000003000928                __aeabi_idiv
                0x0000000003000928                __aeabi_idivmod
 .iwram         0x0000000003000964      0x1e0 udiv32.o
                0x0000000003000964                __aeabi_uidiv
                0x0000000003000964                __aeabi_uidivmod
                0x000000000300096c                udiv32pastzero
                0x00000000030009c0                div32Iteration
 .iwram         0x0000000003000b44       0x98 huffman.o
                0x0000000003000b44                swi_HuffUnCompReadNormal
 .iwram         0x0000000003000bdc      0x128 lz77.o
                0x0000000003000bdc                swi_LZ77UnCompWrite8bit
                0x0000000003000c60                swi_LZ77UnCompWrite16bit
 .iwram         0x0000000003000d04       0xec running_length.o
                0x0000000003000d04                swi_RLUnCompReadNormalWrite8bit
                0x0000000003000d64                swi_RLUnCompReadNormalWrite16bit
 .iwram         0x0000000003000df0      0x554 /opt/devkitpro/libgba/lib/libmm.a(mm_mas.o)
                0x0000000003000df0                mppProcessTick
                0x0000000003000ed4                mpp_Channel_NewNote
                0x0000000003000fb4                mpp_Update_ACHN_notest
 .iwram         0x0000000003001344      0x648 /opt/devkitpro/libgba/lib/libmm.a(mm_mas_arm.o)
                0x0000000003001344                mmAllocChannel
                0x00000000030013b8                mmReadPattern
                0x00000000030014a4                mmUpdateChannel_T0
                0x00000000030016e4                mmUpdateChannel_TN
                0x0000000003001884                mmGetPeriod
                0x00000000030018c8                note_table_oct
                0x00000000030018e6                note_table_mod
 .iwram         0x000000000300198c      0x838 /opt/devkitpro/libgba/lib/libmm.a(mm_mixer_gba.o)
                0x0000000003001990                mmVBlank
                0x0000000003001a14                mmMixerMix
 .iwram         0x00000000030021c4        0x8 /opt/devkitpro/libgba/lib/libmm.a(mm_main_gba.o)
                0x00000000030021c4                mpp_call_r7i
                0x00000000030021c6                mpp_call_r2i
                0x00000000030021c8                mpp_call_r1i
 *fill*         0x00000000030021cc        0x4 ff
 .iwram.__stub  0x00000000030021d0       0x18 linker stubs
 *iwram.*(.text* .data*)
                0x00000000030021e8                . = ALIGN (0x4)
                0x00000000030021f0                __iwram_end__ = ABSOLUTE (.)
                0x0000000008018ee4                __data_lma = (__iwram_lma + SIZEOF (.iwram))

.bss            0x00000000030021f0      0x86c
                0x00000000030021f0                __bss_start = ABSOLUTE (.)
                0x00000000030021f0                __bss_start__ = ABSOLUTE (.)
 *(.dynbss)
 *(.gnu.linkonce.b*)
 *(.bss*)
 .bss.completed.1
                0x00000000030021f0        0x1 /opt/devkitpro/devkitARM/bin/../lib/gcc/arm-none-eabi/12.2.0/thumb/crtbegin.o
 *fill*         0x00000000030021f1        0x3 
